
AVRASM ver. 2.1.30  D:\prog\Atmega8\speed\List\1.asm Tue Sep 01 16:30:12 2015

D:\prog\Atmega8\speed\List\1.asm(1057): warning: Register r4 already defined by the .DEF directive
                 
                 
                 ;CodeVisionAVR C Compiler V2.05.0 Professional
                 ;(C) Copyright 1998-2010 Pavel Haiduc, HP InfoTech s.r.l.
                 ;http://www.hpinfotech.com
                 
                 ;Chip type                : ATmega8
                 ;Program type             : Application
                 ;Clock frequency          : 4,000000 MHz
                 ;Memory model             : Small
                 ;Optimize for             : Speed
                 ;(s)printf features       : int, width
                 ;(s)scanf features        : int, width
                 ;External RAM size        : 0
                 ;Data Stack size          : 512 byte(s)
                 ;Heap size                : 0 byte(s)
                 ;Promote 'char' to 'int'  : Yes
                 ;'char' is unsigned       : Yes
                 ;8 bit enums              : Yes
                 ;global 'const' stored in FLASH: Yes
                 ;Enhanced core instructions    : On
                 ;Smart register allocation     : On
                 ;Automatic register allocation : On
                 
                 	#pragma AVRPART ADMIN PART_NAME ATmega8
                 	#pragma AVRPART MEMORY PROG_FLASH 8192
                 	#pragma AVRPART MEMORY EEPROM 512
                 	#pragma AVRPART MEMORY INT_SRAM SIZE 1119
                 	#pragma AVRPART MEMORY INT_SRAM START_ADDR 0x60
                 
                 	.LISTMAC
                 	.EQU UDRE=0x5
                 	.EQU RXC=0x7
                 	.EQU USR=0xB
                 	.EQU UDR=0xC
                 	.EQU SPSR=0xE
                 	.EQU SPDR=0xF
                 	.EQU EERE=0x0
                 	.EQU EEWE=0x1
                 	.EQU EEMWE=0x2
                 	.EQU EECR=0x1C
                 	.EQU EEDR=0x1D
                 	.EQU EEARL=0x1E
                 	.EQU EEARH=0x1F
                 	.EQU WDTCR=0x21
                 	.EQU MCUCR=0x35
                 	.EQU GICR=0x3B
                 	.EQU SPL=0x3D
                 	.EQU SPH=0x3E
                 	.EQU SREG=0x3F
                 
                 	.DEF R0X0=R0
                 	.DEF R0X1=R1
                 	.DEF R0X2=R2
                 	.DEF R0X3=R3
                 	.DEF R0X4=R4
                 	.DEF R0X5=R5
                 	.DEF R0X6=R6
                 	.DEF R0X7=R7
                 	.DEF R0X8=R8
                 	.DEF R0X9=R9
                 	.DEF R0XA=R10
                 	.DEF R0XB=R11
                 	.DEF R0XC=R12
                 	.DEF R0XD=R13
                 	.DEF R0XE=R14
                 	.DEF R0XF=R15
                 	.DEF R0X10=R16
                 	.DEF R0X11=R17
                 	.DEF R0X12=R18
                 	.DEF R0X13=R19
                 	.DEF R0X14=R20
                 	.DEF R0X15=R21
                 	.DEF R0X16=R22
                 	.DEF R0X17=R23
                 	.DEF R0X18=R24
                 	.DEF R0X19=R25
                 	.DEF R0X1A=R26
                 	.DEF R0X1B=R27
                 	.DEF R0X1C=R28
                 	.DEF R0X1D=R29
                 	.DEF R0X1E=R30
                 	.DEF R0X1F=R31
                 
                 	.EQU __SRAM_START=0x0060
                 	.EQU __SRAM_END=0x045F
                 	.EQU __DSTACK_SIZE=0x0200
                 	.EQU __HEAP_SIZE=0x0000
                 	.EQU __CLEAR_SRAM_SIZE=__SRAM_END-__SRAM_START+1
                 
                 	.MACRO __CPD1N
                 	CPI  R30,LOW(@0)
                 	LDI  R26,HIGH(@0)
                 	CPC  R31,R26
                 	LDI  R26,BYTE3(@0)
                 	CPC  R22,R26
                 	LDI  R26,BYTE4(@0)
                 	CPC  R23,R26
                 	.ENDM
                 
                 	.MACRO __CPD2N
                 	CPI  R26,LOW(@0)
                 	LDI  R30,HIGH(@0)
                 	CPC  R27,R30
                 	LDI  R30,BYTE3(@0)
                 	CPC  R24,R30
                 	LDI  R30,BYTE4(@0)
                 	CPC  R25,R30
                 	.ENDM
                 
                 	.MACRO __CPWRR
                 	CP   R@0,R@2
                 	CPC  R@1,R@3
                 	.ENDM
                 
                 	.MACRO __CPWRN
                 	CPI  R@0,LOW(@2)
                 	LDI  R30,HIGH(@2)
                 	CPC  R@1,R30
                 	.ENDM
                 
                 	.MACRO __ADDB1MN
                 	SUBI R30,LOW(-@0-(@1))
                 	.ENDM
                 
                 	.MACRO __ADDB2MN
                 	SUBI R26,LOW(-@0-(@1))
                 	.ENDM
                 
                 	.MACRO __ADDW1MN
                 	SUBI R30,LOW(-@0-(@1))
                 	SBCI R31,HIGH(-@0-(@1))
                 	.ENDM
                 
                 	.MACRO __ADDW2MN
                 	SUBI R26,LOW(-@0-(@1))
                 	SBCI R27,HIGH(-@0-(@1))
                 	.ENDM
                 
                 	.MACRO __ADDW1FN
                 	SUBI R30,LOW(-2*@0-(@1))
                 	SBCI R31,HIGH(-2*@0-(@1))
                 	.ENDM
                 
                 	.MACRO __ADDD1FN
                 	SUBI R30,LOW(-2*@0-(@1))
                 	SBCI R31,HIGH(-2*@0-(@1))
                 	SBCI R22,BYTE3(-2*@0-(@1))
                 	.ENDM
                 
                 	.MACRO __ADDD1N
                 	SUBI R30,LOW(-@0)
                 	SBCI R31,HIGH(-@0)
                 	SBCI R22,BYTE3(-@0)
                 	SBCI R23,BYTE4(-@0)
                 	.ENDM
                 
                 	.MACRO __ADDD2N
                 	SUBI R26,LOW(-@0)
                 	SBCI R27,HIGH(-@0)
                 	SBCI R24,BYTE3(-@0)
                 	SBCI R25,BYTE4(-@0)
                 	.ENDM
                 
                 	.MACRO __SUBD1N
                 	SUBI R30,LOW(@0)
                 	SBCI R31,HIGH(@0)
                 	SBCI R22,BYTE3(@0)
                 	SBCI R23,BYTE4(@0)
                 	.ENDM
                 
                 	.MACRO __SUBD2N
                 	SUBI R26,LOW(@0)
                 	SBCI R27,HIGH(@0)
                 	SBCI R24,BYTE3(@0)
                 	SBCI R25,BYTE4(@0)
                 	.ENDM
                 
                 	.MACRO __ANDBMNN
                 	LDS  R30,@0+(@1)
                 	ANDI R30,LOW(@2)
                 	STS  @0+(@1),R30
                 	.ENDM
                 
                 	.MACRO __ANDWMNN
                 	LDS  R30,@0+(@1)
                 	ANDI R30,LOW(@2)
                 	STS  @0+(@1),R30
                 	LDS  R30,@0+(@1)+1
                 	ANDI R30,HIGH(@2)
                 	STS  @0+(@1)+1,R30
                 	.ENDM
                 
                 	.MACRO __ANDD1N
                 	ANDI R30,LOW(@0)
                 	ANDI R31,HIGH(@0)
                 	ANDI R22,BYTE3(@0)
                 	ANDI R23,BYTE4(@0)
                 	.ENDM
                 
                 	.MACRO __ANDD2N
                 	ANDI R26,LOW(@0)
                 	ANDI R27,HIGH(@0)
                 	ANDI R24,BYTE3(@0)
                 	ANDI R25,BYTE4(@0)
                 	.ENDM
                 
                 	.MACRO __ORBMNN
                 	LDS  R30,@0+(@1)
                 	ORI  R30,LOW(@2)
                 	STS  @0+(@1),R30
                 	.ENDM
                 
                 	.MACRO __ORWMNN
                 	LDS  R30,@0+(@1)
                 	ORI  R30,LOW(@2)
                 	STS  @0+(@1),R30
                 	LDS  R30,@0+(@1)+1
                 	ORI  R30,HIGH(@2)
                 	STS  @0+(@1)+1,R30
                 	.ENDM
                 
                 	.MACRO __ORD1N
                 	ORI  R30,LOW(@0)
                 	ORI  R31,HIGH(@0)
                 	ORI  R22,BYTE3(@0)
                 	ORI  R23,BYTE4(@0)
                 	.ENDM
                 
                 	.MACRO __ORD2N
                 	ORI  R26,LOW(@0)
                 	ORI  R27,HIGH(@0)
                 	ORI  R24,BYTE3(@0)
                 	ORI  R25,BYTE4(@0)
                 	.ENDM
                 
                 	.MACRO __DELAY_USB
                 	LDI  R24,LOW(@0)
                 __DELAY_USB_LOOP:
                 	DEC  R24
                 	BRNE __DELAY_USB_LOOP
                 	.ENDM
                 
                 	.MACRO __DELAY_USW
                 	LDI  R24,LOW(@0)
                 	LDI  R25,HIGH(@0)
                 __DELAY_USW_LOOP:
                 	SBIW R24,1
                 	BRNE __DELAY_USW_LOOP
                 	.ENDM
                 
                 	.MACRO __GETD1S
                 	LDD  R30,Y+@0
                 	LDD  R31,Y+@0+1
                 	LDD  R22,Y+@0+2
                 	LDD  R23,Y+@0+3
                 	.ENDM
                 
                 	.MACRO __GETD2S
                 	LDD  R26,Y+@0
                 	LDD  R27,Y+@0+1
                 	LDD  R24,Y+@0+2
                 	LDD  R25,Y+@0+3
                 	.ENDM
                 
                 	.MACRO __PUTD1S
                 	STD  Y+@0,R30
                 	STD  Y+@0+1,R31
                 	STD  Y+@0+2,R22
                 	STD  Y+@0+3,R23
                 	.ENDM
                 
                 	.MACRO __PUTD2S
                 	STD  Y+@0,R26
                 	STD  Y+@0+1,R27
                 	STD  Y+@0+2,R24
                 	STD  Y+@0+3,R25
                 	.ENDM
                 
                 	.MACRO __PUTDZ2
                 	STD  Z+@0,R26
                 	STD  Z+@0+1,R27
                 	STD  Z+@0+2,R24
                 	STD  Z+@0+3,R25
                 	.ENDM
                 
                 	.MACRO __CLRD1S
                 	STD  Y+@0,R30
                 	STD  Y+@0+1,R30
                 	STD  Y+@0+2,R30
                 	STD  Y+@0+3,R30
                 	.ENDM
                 
                 	.MACRO __POINTB1MN
                 	LDI  R30,LOW(@0+(@1))
                 	.ENDM
                 
                 	.MACRO __POINTW1MN
                 	LDI  R30,LOW(@0+(@1))
                 	LDI  R31,HIGH(@0+(@1))
                 	.ENDM
                 
                 	.MACRO __POINTD1M
                 	LDI  R30,LOW(@0)
                 	LDI  R31,HIGH(@0)
                 	LDI  R22,BYTE3(@0)
                 	LDI  R23,BYTE4(@0)
                 	.ENDM
                 
                 	.MACRO __POINTW1FN
                 	LDI  R30,LOW(2*@0+(@1))
                 	LDI  R31,HIGH(2*@0+(@1))
                 	.ENDM
                 
                 	.MACRO __POINTD1FN
                 	LDI  R30,LOW(2*@0+(@1))
                 	LDI  R31,HIGH(2*@0+(@1))
                 	LDI  R22,BYTE3(2*@0+(@1))
                 	LDI  R23,BYTE4(2*@0+(@1))
                 	.ENDM
                 
                 	.MACRO __POINTB2MN
                 	LDI  R26,LOW(@0+(@1))
                 	.ENDM
                 
                 	.MACRO __POINTW2MN
                 	LDI  R26,LOW(@0+(@1))
                 	LDI  R27,HIGH(@0+(@1))
                 	.ENDM
                 
                 	.MACRO __POINTBRM
                 	LDI  R@0,LOW(@1)
                 	.ENDM
                 
                 	.MACRO __POINTWRM
                 	LDI  R@0,LOW(@2)
                 	LDI  R@1,HIGH(@2)
                 	.ENDM
                 
                 	.MACRO __POINTBRMN
                 	LDI  R@0,LOW(@1+(@2))
                 	.ENDM
                 
                 	.MACRO __POINTWRMN
                 	LDI  R@0,LOW(@2+(@3))
                 	LDI  R@1,HIGH(@2+(@3))
                 	.ENDM
                 
                 	.MACRO __POINTWRFN
                 	LDI  R@0,LOW(@2*2+(@3))
                 	LDI  R@1,HIGH(@2*2+(@3))
                 	.ENDM
                 
                 	.MACRO __GETD1N
                 	LDI  R30,LOW(@0)
                 	LDI  R31,HIGH(@0)
                 	LDI  R22,BYTE3(@0)
                 	LDI  R23,BYTE4(@0)
                 	.ENDM
                 
                 	.MACRO __GETD2N
                 	LDI  R26,LOW(@0)
                 	LDI  R27,HIGH(@0)
                 	LDI  R24,BYTE3(@0)
                 	LDI  R25,BYTE4(@0)
                 	.ENDM
                 
                 	.MACRO __GETB1MN
                 	LDS  R30,@0+(@1)
                 	.ENDM
                 
                 	.MACRO __GETB1HMN
                 	LDS  R31,@0+(@1)
                 	.ENDM
                 
                 	.MACRO __GETW1MN
                 	LDS  R30,@0+(@1)
                 	LDS  R31,@0+(@1)+1
                 	.ENDM
                 
                 	.MACRO __GETD1MN
                 	LDS  R30,@0+(@1)
                 	LDS  R31,@0+(@1)+1
                 	LDS  R22,@0+(@1)+2
                 	LDS  R23,@0+(@1)+3
                 	.ENDM
                 
                 	.MACRO __GETBRMN
                 	LDS  R@0,@1+(@2)
                 	.ENDM
                 
                 	.MACRO __GETWRMN
                 	LDS  R@0,@2+(@3)
                 	LDS  R@1,@2+(@3)+1
                 	.ENDM
                 
                 	.MACRO __GETWRZ
                 	LDD  R@0,Z+@2
                 	LDD  R@1,Z+@2+1
                 	.ENDM
                 
                 	.MACRO __GETD2Z
                 	LDD  R26,Z+@0
                 	LDD  R27,Z+@0+1
                 	LDD  R24,Z+@0+2
                 	LDD  R25,Z+@0+3
                 	.ENDM
                 
                 	.MACRO __GETB2MN
                 	LDS  R26,@0+(@1)
                 	.ENDM
                 
                 	.MACRO __GETW2MN
                 	LDS  R26,@0+(@1)
                 	LDS  R27,@0+(@1)+1
                 	.ENDM
                 
                 	.MACRO __GETD2MN
                 	LDS  R26,@0+(@1)
                 	LDS  R27,@0+(@1)+1
                 	LDS  R24,@0+(@1)+2
                 	LDS  R25,@0+(@1)+3
                 	.ENDM
                 
                 	.MACRO __PUTB1MN
                 	STS  @0+(@1),R30
                 	.ENDM
                 
                 	.MACRO __PUTW1MN
                 	STS  @0+(@1),R30
                 	STS  @0+(@1)+1,R31
                 	.ENDM
                 
                 	.MACRO __PUTD1MN
                 	STS  @0+(@1),R30
                 	STS  @0+(@1)+1,R31
                 	STS  @0+(@1)+2,R22
                 	STS  @0+(@1)+3,R23
                 	.ENDM
                 
                 	.MACRO __PUTB1EN
                 	LDI  R26,LOW(@0+(@1))
                 	LDI  R27,HIGH(@0+(@1))
                 	RCALL __EEPROMWRB
                 	.ENDM
                 
                 	.MACRO __PUTW1EN
                 	LDI  R26,LOW(@0+(@1))
                 	LDI  R27,HIGH(@0+(@1))
                 	RCALL __EEPROMWRW
                 	.ENDM
                 
                 	.MACRO __PUTD1EN
                 	LDI  R26,LOW(@0+(@1))
                 	LDI  R27,HIGH(@0+(@1))
                 	RCALL __EEPROMWRD
                 	.ENDM
                 
                 	.MACRO __PUTBR0MN
                 	STS  @0+(@1),R0
                 	.ENDM
                 
                 	.MACRO __PUTBMRN
                 	STS  @0+(@1),R@2
                 	.ENDM
                 
                 	.MACRO __PUTWMRN
                 	STS  @0+(@1),R@2
                 	STS  @0+(@1)+1,R@3
                 	.ENDM
                 
                 	.MACRO __PUTBZR
                 	STD  Z+@1,R@0
                 	.ENDM
                 
                 	.MACRO __PUTWZR
                 	STD  Z+@2,R@0
                 	STD  Z+@2+1,R@1
                 	.ENDM
                 
                 	.MACRO __GETW1R
                 	MOV  R30,R@0
                 	MOV  R31,R@1
                 	.ENDM
                 
                 	.MACRO __GETW2R
                 	MOV  R26,R@0
                 	MOV  R27,R@1
                 	.ENDM
                 
                 	.MACRO __GETWRN
                 	LDI  R@0,LOW(@2)
                 	LDI  R@1,HIGH(@2)
                 	.ENDM
                 
                 	.MACRO __PUTW1R
                 	MOV  R@0,R30
                 	MOV  R@1,R31
                 	.ENDM
                 
                 	.MACRO __PUTW2R
                 	MOV  R@0,R26
                 	MOV  R@1,R27
                 	.ENDM
                 
                 	.MACRO __ADDWRN
                 	SUBI R@0,LOW(-@2)
                 	SBCI R@1,HIGH(-@2)
                 	.ENDM
                 
                 	.MACRO __ADDWRR
                 	ADD  R@0,R@2
                 	ADC  R@1,R@3
                 	.ENDM
                 
                 	.MACRO __SUBWRN
                 	SUBI R@0,LOW(@2)
                 	SBCI R@1,HIGH(@2)
                 	.ENDM
                 
                 	.MACRO __SUBWRR
                 	SUB  R@0,R@2
                 	SBC  R@1,R@3
                 	.ENDM
                 
                 	.MACRO __ANDWRN
                 	ANDI R@0,LOW(@2)
                 	ANDI R@1,HIGH(@2)
                 	.ENDM
                 
                 	.MACRO __ANDWRR
                 	AND  R@0,R@2
                 	AND  R@1,R@3
                 	.ENDM
                 
                 	.MACRO __ORWRN
                 	ORI  R@0,LOW(@2)
                 	ORI  R@1,HIGH(@2)
                 	.ENDM
                 
                 	.MACRO __ORWRR
                 	OR   R@0,R@2
                 	OR   R@1,R@3
                 	.ENDM
                 
                 	.MACRO __EORWRR
                 	EOR  R@0,R@2
                 	EOR  R@1,R@3
                 	.ENDM
                 
                 	.MACRO __GETWRS
                 	LDD  R@0,Y+@2
                 	LDD  R@1,Y+@2+1
                 	.ENDM
                 
                 	.MACRO __PUTBSR
                 	STD  Y+@1,R@0
                 	.ENDM
                 
                 	.MACRO __PUTWSR
                 	STD  Y+@2,R@0
                 	STD  Y+@2+1,R@1
                 	.ENDM
                 
                 	.MACRO __MOVEWRR
                 	MOV  R@0,R@2
                 	MOV  R@1,R@3
                 	.ENDM
                 
                 	.MACRO __INWR
                 	IN   R@0,@2
                 	IN   R@1,@2+1
                 	.ENDM
                 
                 	.MACRO __OUTWR
                 	OUT  @2+1,R@1
                 	OUT  @2,R@0
                 	.ENDM
                 
                 	.MACRO __CALL1MN
                 	LDS  R30,@0+(@1)
                 	LDS  R31,@0+(@1)+1
                 	ICALL
                 	.ENDM
                 
                 	.MACRO __CALL1FN
                 	LDI  R30,LOW(2*@0+(@1))
                 	LDI  R31,HIGH(2*@0+(@1))
                 	RCALL __GETW1PF
                 	ICALL
                 	.ENDM
                 
                 	.MACRO __CALL2EN
                 	LDI  R26,LOW(@0+(@1))
                 	LDI  R27,HIGH(@0+(@1))
                 	RCALL __EEPROMRDW
                 	ICALL
                 	.ENDM
                 
                 	.MACRO __GETW1STACK
                 	IN   R26,SPL
                 	IN   R27,SPH
                 	ADIW R26,@0+1
                 	LD   R30,X+
                 	LD   R31,X
                 	.ENDM
                 
                 	.MACRO __GETD1STACK
                 	IN   R26,SPL
                 	IN   R27,SPH
                 	ADIW R26,@0+1
                 	LD   R30,X+
                 	LD   R31,X+
                 	LD   R22,X
                 	.ENDM
                 
                 	.MACRO __NBST
                 	BST  R@0,@1
                 	IN   R30,SREG
                 	LDI  R31,0x40
                 	EOR  R30,R31
                 	OUT  SREG,R30
                 	.ENDM
                 
                 
                 	.MACRO __PUTB1SN
                 	LDD  R26,Y+@0
                 	LDD  R27,Y+@0+1
                 	SUBI R26,LOW(-@1)
                 	SBCI R27,HIGH(-@1)
                 	ST   X,R30
                 	.ENDM
                 
                 	.MACRO __PUTW1SN
                 	LDD  R26,Y+@0
                 	LDD  R27,Y+@0+1
                 	SUBI R26,LOW(-@1)
                 	SBCI R27,HIGH(-@1)
                 	ST   X+,R30
                 	ST   X,R31
                 	.ENDM
                 
                 	.MACRO __PUTD1SN
                 	LDD  R26,Y+@0
                 	LDD  R27,Y+@0+1
                 	SUBI R26,LOW(-@1)
                 	SBCI R27,HIGH(-@1)
                 	RCALL __PUTDP1
                 	.ENDM
                 
                 	.MACRO __PUTB1SNS
                 	LDD  R26,Y+@0
                 	LDD  R27,Y+@0+1
                 	ADIW R26,@1
                 	ST   X,R30
                 	.ENDM
                 
                 	.MACRO __PUTW1SNS
                 	LDD  R26,Y+@0
                 	LDD  R27,Y+@0+1
                 	ADIW R26,@1
                 	ST   X+,R30
                 	ST   X,R31
                 	.ENDM
                 
                 	.MACRO __PUTD1SNS
                 	LDD  R26,Y+@0
                 	LDD  R27,Y+@0+1
                 	ADIW R26,@1
                 	RCALL __PUTDP1
                 	.ENDM
                 
                 	.MACRO __PUTB1PMN
                 	LDS  R26,@0
                 	LDS  R27,@0+1
                 	SUBI R26,LOW(-@1)
                 	SBCI R27,HIGH(-@1)
                 	ST   X,R30
                 	.ENDM
                 
                 	.MACRO __PUTW1PMN
                 	LDS  R26,@0
                 	LDS  R27,@0+1
                 	SUBI R26,LOW(-@1)
                 	SBCI R27,HIGH(-@1)
                 	ST   X+,R30
                 	ST   X,R31
                 	.ENDM
                 
                 	.MACRO __PUTD1PMN
                 	LDS  R26,@0
                 	LDS  R27,@0+1
                 	SUBI R26,LOW(-@1)
                 	SBCI R27,HIGH(-@1)
                 	RCALL __PUTDP1
                 	.ENDM
                 
                 	.MACRO __PUTB1PMNS
                 	LDS  R26,@0
                 	LDS  R27,@0+1
                 	ADIW R26,@1
                 	ST   X,R30
                 	.ENDM
                 
                 	.MACRO __PUTW1PMNS
                 	LDS  R26,@0
                 	LDS  R27,@0+1
                 	ADIW R26,@1
                 	ST   X+,R30
                 	ST   X,R31
                 	.ENDM
                 
                 	.MACRO __PUTD1PMNS
                 	LDS  R26,@0
                 	LDS  R27,@0+1
                 	ADIW R26,@1
                 	RCALL __PUTDP1
                 	.ENDM
                 
                 	.MACRO __PUTB1RN
                 	MOVW R26,R@0
                 	SUBI R26,LOW(-@1)
                 	SBCI R27,HIGH(-@1)
                 	ST   X,R30
                 	.ENDM
                 
                 	.MACRO __PUTW1RN
                 	MOVW R26,R@0
                 	SUBI R26,LOW(-@1)
                 	SBCI R27,HIGH(-@1)
                 	ST   X+,R30
                 	ST   X,R31
                 	.ENDM
                 
                 	.MACRO __PUTD1RN
                 	MOVW R26,R@0
                 	SUBI R26,LOW(-@1)
                 	SBCI R27,HIGH(-@1)
                 	RCALL __PUTDP1
                 	.ENDM
                 
                 	.MACRO __PUTB1RNS
                 	MOVW R26,R@0
                 	ADIW R26,@1
                 	ST   X,R30
                 	.ENDM
                 
                 	.MACRO __PUTW1RNS
                 	MOVW R26,R@0
                 	ADIW R26,@1
                 	ST   X+,R30
                 	ST   X,R31
                 	.ENDM
                 
                 	.MACRO __PUTD1RNS
                 	MOVW R26,R@0
                 	ADIW R26,@1
                 	RCALL __PUTDP1
                 	.ENDM
                 
                 	.MACRO __PUTB1RON
                 	MOV  R26,R@0
                 	MOV  R27,R@1
                 	SUBI R26,LOW(-@2)
                 	SBCI R27,HIGH(-@2)
                 	ST   X,R30
                 	.ENDM
                 
                 	.MACRO __PUTW1RON
                 	MOV  R26,R@0
                 	MOV  R27,R@1
                 	SUBI R26,LOW(-@2)
                 	SBCI R27,HIGH(-@2)
                 	ST   X+,R30
                 	ST   X,R31
                 	.ENDM
                 
                 	.MACRO __PUTD1RON
                 	MOV  R26,R@0
                 	MOV  R27,R@1
                 	SUBI R26,LOW(-@2)
                 	SBCI R27,HIGH(-@2)
                 	RCALL __PUTDP1
                 	.ENDM
                 
                 	.MACRO __PUTB1RONS
                 	MOV  R26,R@0
                 	MOV  R27,R@1
                 	ADIW R26,@2
                 	ST   X,R30
                 	.ENDM
                 
                 	.MACRO __PUTW1RONS
                 	MOV  R26,R@0
                 	MOV  R27,R@1
                 	ADIW R26,@2
                 	ST   X+,R30
                 	ST   X,R31
                 	.ENDM
                 
                 	.MACRO __PUTD1RONS
                 	MOV  R26,R@0
                 	MOV  R27,R@1
                 	ADIW R26,@2
                 	RCALL __PUTDP1
                 	.ENDM
                 
                 
                 	.MACRO __GETB1SX
                 	MOVW R30,R28
                 	SUBI R30,LOW(-@0)
                 	SBCI R31,HIGH(-@0)
                 	LD   R30,Z
                 	.ENDM
                 
                 	.MACRO __GETB1HSX
                 	MOVW R30,R28
                 	SUBI R30,LOW(-@0)
                 	SBCI R31,HIGH(-@0)
                 	LD   R31,Z
                 	.ENDM
                 
                 	.MACRO __GETW1SX
                 	MOVW R30,R28
                 	SUBI R30,LOW(-@0)
                 	SBCI R31,HIGH(-@0)
                 	LD   R0,Z+
                 	LD   R31,Z
                 	MOV  R30,R0
                 	.ENDM
                 
                 	.MACRO __GETD1SX
                 	MOVW R30,R28
                 	SUBI R30,LOW(-@0)
                 	SBCI R31,HIGH(-@0)
                 	LD   R0,Z+
                 	LD   R1,Z+
                 	LD   R22,Z+
                 	LD   R23,Z
                 	MOVW R30,R0
                 	.ENDM
                 
                 	.MACRO __GETB2SX
                 	MOVW R26,R28
                 	SUBI R26,LOW(-@0)
                 	SBCI R27,HIGH(-@0)
                 	LD   R26,X
                 	.ENDM
                 
                 	.MACRO __GETW2SX
                 	MOVW R26,R28
                 	SUBI R26,LOW(-@0)
                 	SBCI R27,HIGH(-@0)
                 	LD   R0,X+
                 	LD   R27,X
                 	MOV  R26,R0
                 	.ENDM
                 
                 	.MACRO __GETD2SX
                 	MOVW R26,R28
                 	SUBI R26,LOW(-@0)
                 	SBCI R27,HIGH(-@0)
                 	LD   R0,X+
                 	LD   R1,X+
                 	LD   R24,X+
                 	LD   R25,X
                 	MOVW R26,R0
                 	.ENDM
                 
                 	.MACRO __GETBRSX
                 	MOVW R30,R28
                 	SUBI R30,LOW(-@1)
                 	SBCI R31,HIGH(-@1)
                 	LD   R@0,Z
                 	.ENDM
                 
                 	.MACRO __GETWRSX
                 	MOVW R30,R28
                 	SUBI R30,LOW(-@2)
                 	SBCI R31,HIGH(-@2)
                 	LD   R@0,Z+
                 	LD   R@1,Z
                 	.ENDM
                 
                 	.MACRO __GETBRSX2
                 	MOVW R26,R28
                 	SUBI R26,LOW(-@1)
                 	SBCI R27,HIGH(-@1)
                 	LD   R@0,X
                 	.ENDM
                 
                 	.MACRO __GETWRSX2
                 	MOVW R26,R28
                 	SUBI R26,LOW(-@2)
                 	SBCI R27,HIGH(-@2)
                 	LD   R@0,X+
                 	LD   R@1,X
                 	.ENDM
                 
                 	.MACRO __LSLW8SX
                 	MOVW R30,R28
                 	SUBI R30,LOW(-@0)
                 	SBCI R31,HIGH(-@0)
                 	LD   R31,Z
                 	CLR  R30
                 	.ENDM
                 
                 	.MACRO __PUTB1SX
                 	MOVW R26,R28
                 	SUBI R26,LOW(-@0)
                 	SBCI R27,HIGH(-@0)
                 	ST   X,R30
                 	.ENDM
                 
                 	.MACRO __PUTW1SX
                 	MOVW R26,R28
                 	SUBI R26,LOW(-@0)
                 	SBCI R27,HIGH(-@0)
                 	ST   X+,R30
                 	ST   X,R31
                 	.ENDM
                 
                 	.MACRO __PUTD1SX
                 	MOVW R26,R28
                 	SUBI R26,LOW(-@0)
                 	SBCI R27,HIGH(-@0)
                 	ST   X+,R30
                 	ST   X+,R31
                 	ST   X+,R22
                 	ST   X,R23
                 	.ENDM
                 
                 	.MACRO __CLRW1SX
                 	MOVW R26,R28
                 	SUBI R26,LOW(-@0)
                 	SBCI R27,HIGH(-@0)
                 	ST   X+,R30
                 	ST   X,R30
                 	.ENDM
                 
                 	.MACRO __CLRD1SX
                 	MOVW R26,R28
                 	SUBI R26,LOW(-@0)
                 	SBCI R27,HIGH(-@0)
                 	ST   X+,R30
                 	ST   X+,R30
                 	ST   X+,R30
                 	ST   X,R30
                 	.ENDM
                 
                 	.MACRO __PUTB2SX
                 	MOVW R30,R28
                 	SUBI R30,LOW(-@0)
                 	SBCI R31,HIGH(-@0)
                 	ST   Z,R26
                 	.ENDM
                 
                 	.MACRO __PUTW2SX
                 	MOVW R30,R28
                 	SUBI R30,LOW(-@0)
                 	SBCI R31,HIGH(-@0)
                 	ST   Z+,R26
                 	ST   Z,R27
                 	.ENDM
                 
                 	.MACRO __PUTD2SX
                 	MOVW R30,R28
                 	SUBI R30,LOW(-@0)
                 	SBCI R31,HIGH(-@0)
                 	ST   Z+,R26
                 	ST   Z+,R27
                 	ST   Z+,R24
                 	ST   Z,R25
                 	.ENDM
                 
                 	.MACRO __PUTBSRX
                 	MOVW R30,R28
                 	SUBI R30,LOW(-@1)
                 	SBCI R31,HIGH(-@1)
                 	ST   Z,R@0
                 	.ENDM
                 
                 	.MACRO __PUTWSRX
                 	MOVW R30,R28
                 	SUBI R30,LOW(-@2)
                 	SBCI R31,HIGH(-@2)
                 	ST   Z+,R@0
                 	ST   Z,R@1
                 	.ENDM
                 
                 	.MACRO __PUTB1SNX
                 	MOVW R26,R28
                 	SUBI R26,LOW(-@0)
                 	SBCI R27,HIGH(-@0)
                 	LD   R0,X+
                 	LD   R27,X
                 	MOV  R26,R0
                 	SUBI R26,LOW(-@1)
                 	SBCI R27,HIGH(-@1)
                 	ST   X,R30
                 	.ENDM
                 
                 	.MACRO __PUTW1SNX
                 	MOVW R26,R28
                 	SUBI R26,LOW(-@0)
                 	SBCI R27,HIGH(-@0)
                 	LD   R0,X+
                 	LD   R27,X
                 	MOV  R26,R0
                 	SUBI R26,LOW(-@1)
                 	SBCI R27,HIGH(-@1)
                 	ST   X+,R30
                 	ST   X,R31
                 	.ENDM
                 
                 	.MACRO __PUTD1SNX
                 	MOVW R26,R28
                 	SUBI R26,LOW(-@0)
                 	SBCI R27,HIGH(-@0)
                 	LD   R0,X+
                 	LD   R27,X
                 	MOV  R26,R0
                 	SUBI R26,LOW(-@1)
                 	SBCI R27,HIGH(-@1)
                 	ST   X+,R30
                 	ST   X+,R31
                 	ST   X+,R22
                 	ST   X,R23
                 	.ENDM
                 
                 	.MACRO __MULBRR
                 	MULS R@0,R@1
                 	MOVW R30,R0
                 	.ENDM
                 
                 	.MACRO __MULBRRU
                 	MUL  R@0,R@1
                 	MOVW R30,R0
                 	.ENDM
                 
                 	.MACRO __MULBRR0
                 	MULS R@0,R@1
                 	.ENDM
                 
                 	.MACRO __MULBRRU0
                 	MUL  R@0,R@1
                 	.ENDM
                 
                 	.MACRO __MULBNWRU
                 	LDI  R26,@2
                 	MUL  R26,R@0
                 	MOVW R30,R0
                 	MUL  R26,R@1
                 	ADD  R31,R0
                 	.ENDM
                 
                 ;NAME DEFINITIONS FOR GLOBAL VARIABLES ALLOCATED TO REGISTERS
                 	.DEF _temper=R4
                 
                 	.CSEG
                 	.ORG 0x00
                 
                 ;START OF CODE MARKER
                 __START_OF_CODE:
                 
                 ;INTERRUPT VECTORS
000000 c331      	RJMP __RESET
000001 c524      	RJMP _ext_int0_isr
000002 cffd      	RJMP 0x00
000003 c68a      	RJMP _timer1_compb_isr
000004 cffb      	RJMP 0x00
000005 cffa      	RJMP 0x00
000006 c65a      	RJMP _timer1_compa_isr
000007 cff8      	RJMP 0x00
000008 cff7      	RJMP 0x00
000009 cff6      	RJMP 0x00
00000a cff5      	RJMP 0x00
00000b cff4      	RJMP 0x00
00000c cff3      	RJMP 0x00
00000d cff2      	RJMP 0x00
00000e cff1      	RJMP 0x00
00000f cff0      	RJMP 0x00
000010 cfef      	RJMP 0x00
000011 cfee      	RJMP 0x00
000012 cfed      	RJMP 0x00
                 
                 _num:
000013 0000
000014 0000
000015 0000
000016 7400      	.DB  0x0,0x0,0x0,0x0,0x0,0x0,0x0,0x74
000017 0000
000018 6000
000019 6000
00001a 0000      	.DB  0x0,0x0,0x0,0x60,0x0,0x60,0x0,0x0
00001b 287c
00001c 007c
00001d 3400
00001e 58d6      	.DB  0x7C,0x28,0x7C,0x0,0x0,0x34,0xD6,0x58
00001f 0800
000020 6c60
000021 200c
000022 7800      	.DB  0x0,0x8,0x60,0x6C,0xC,0x20,0x0,0x78
000023 1854
000024 0020
000025 6000
000026 0000      	.DB  0x54,0x18,0x20,0x0,0x0,0x60,0x0,0x0
000027 0000
000028 4438
000029 0000
00002a 3844      	.DB  0x0,0x0,0x38,0x44,0x0,0x0,0x44,0x38
00002b 0000
00002c 5000
00002d 5020
00002e 0000      	.DB  0x0,0x0,0x0,0x50,0x20,0x50,0x0,0x0
00002f 3810
000030 0010
000031 0c00
000032 020c      	.DB  0x10,0x38,0x10,0x0,0x0,0xC,0xC,0x2
000033 0000
000034 1010
000035 0010
000036 0c00      	.DB  0x0,0x0,0x10,0x10,0x10,0x0,0x0,0xC
000037 000c
000038 0400
000039 1008
00003a 4020      	.DB  0xC,0x0,0x0,0x4,0x8,0x10,0x20,0x40
00003b 7c00
00003c 7c44
00003d 0000
00003e 7c20      	.DB  0x0,0x7C,0x44,0x7C,0x0,0x0,0x20,0x7C
00003f 0000
000040 5c00
000041 7454
000042 0000      	.DB  0x0,0x0,0x0,0x5C,0x54,0x74,0x0,0x0
000043 5454
000044 007c
000045 7000
000046 7c10      	.DB  0x54,0x54,0x7C,0x0,0x0,0x70,0x10,0x7C
000047 0000
000048 5474
000049 005c
00004a 7c00      	.DB  0x0,0x0,0x74,0x54,0x5C,0x0,0x0,0x7C
00004b 1c14
00004c 0000
00004d 4040
00004e 007c      	.DB  0x14,0x1C,0x0,0x0,0x40,0x40,0x7C,0x0
00004f 7c00
000050 7c54
000051 0000
000052 5474      	.DB  0x0,0x7C,0x54,0x7C,0x0,0x0,0x74,0x54
000053 007c
000054 6c00
000055 006c
000056 0000      	.DB  0x7C,0x0,0x0,0x6C,0x6C,0x0,0x0,0x0
000057 6c02
000058 006c
000059 1000
00005a 4428      	.DB  0x2,0x6C,0x6C,0x0,0x0,0x10,0x28,0x44
00005b 0000
00005c 2828
00005d 0028
00005e 4400      	.DB  0x0,0x0,0x28,0x28,0x28,0x0,0x0,0x44
00005f 1028
000060 0000
000061 4a20
000062 0030      	.DB  0x28,0x10,0x0,0x0,0x20,0x4A,0x30,0x0
000063 7c00
000064 7454
000065 0000
000066 483c      	.DB  0x0,0x7C,0x54,0x74,0x0,0x0,0x3C,0x48
000067 003c
000068 7c00
000069 3854
00006a 0000      	.DB  0x3C,0x0,0x0,0x7C,0x54,0x38,0x0,0x0
00006b 4438
00006c 0044
00006d 7c00
00006e 3844      	.DB  0x38,0x44,0x44,0x0,0x0,0x7C,0x44,0x38
00006f 0000
000070 547c
000071 0054
000072 7c00      	.DB  0x0,0x0,0x7C,0x54,0x54,0x0,0x0,0x7C
000073 5050
000074 0000
000075 547c
000076 005c      	.DB  0x50,0x50,0x0,0x0,0x7C,0x54,0x5C,0x0
000077 7c00
000078 7c10
000079 0000
00007a 7c44      	.DB  0x0,0x7C,0x10,0x7C,0x0,0x0,0x44,0x7C
00007b 0044
00007c 4c00
00007d 7c44
00007e 0040      	.DB  0x44,0x0,0x0,0x4C,0x44,0x7C,0x40,0x0
00007f 107c
000080 006c
000081 7c00
000082 0404      	.DB  0x7C,0x10,0x6C,0x0,0x0,0x7C,0x4,0x4
000083 7c00
000084 1020
000085 7c20
000086 3c00      	.DB  0x0,0x7C,0x20,0x10,0x20,0x7C,0x0,0x3C
000087 4040
000088 003c
000089 4438
00008a 0038      	.DB  0x40,0x40,0x3C,0x0,0x38,0x44,0x38,0x0
00008b 7c00
00008c 7050
00008d 0000
00008e 447c      	.DB  0x0,0x7C,0x50,0x70,0x0,0x0,0x7C,0x44
00008f 0278
000090 7c00
000091 3850
000092 0004      	.DB  0x78,0x2,0x0,0x7C,0x50,0x38,0x4,0x0
000093 5434
000094 0058
000095 4040
000096 407c      	.DB  0x34,0x54,0x58,0x0,0x40,0x40,0x7C,0x40
000097 7840
000098 0404
000099 0078
00009a 7800      	.DB  0x40,0x78,0x4,0x4,0x78,0x0,0x0,0x78
00009b 7804
00009c 7800
00009d 7804
00009e 7804      	.DB  0x4,0x78,0x0,0x78,0x4,0x78,0x4,0x78
00009f 2844
0000a0 2810
0000a1 0044
0000a2 0c70      	.DB  0x44,0x28,0x10,0x28,0x44,0x0,0x70,0xC
0000a3 0070
0000a4 4c00
0000a5 6454
0000a6 0000      	.DB  0x70,0x0,0x0,0x4C,0x54,0x64,0x0,0x0
0000a7 447c
0000a8 0044
0000a9 2000
0000aa 0810      	.DB  0x7C,0x44,0x44,0x0,0x0,0x20,0x10,0x8
0000ab 0004
0000ac 4444
0000ad 007c
0000ae 2000      	.DB  0x4,0x0,0x44,0x44,0x7C,0x0,0x0,0x20
0000af 2040
0000b0 0400
0000b1 0404
0000b2 0404      	.DB  0x40,0x20,0x0,0x4,0x4,0x4,0x4,0x4
0000b3 0000
0000b4 4000
0000b5 0000
0000b6 483c      	.DB  0x0,0x0,0x0,0x40,0x0,0x0,0x3C,0x48
0000b7 003c
0000b8 7c00
0000b9 4854
0000ba 0000      	.DB  0x3C,0x0,0x0,0x7C,0x54,0x48,0x0,0x0
0000bb 547c
0000bc 0038
0000bd 7c00
0000be 6040      	.DB  0x7C,0x54,0x38,0x0,0x0,0x7C,0x40,0x60
0000bf 0c00
0000c0 5070
0000c1 0c70
0000c2 7c00      	.DB  0x0,0xC,0x70,0x50,0x70,0xC,0x0,0x7C
0000c3 5454
0000c4 4400
0000c5 7c28
0000c6 4428      	.DB  0x54,0x54,0x0,0x44,0x28,0x7C,0x28,0x44
0000c7 5400
0000c8 7c54
0000c9 0000
0000ca 087c      	.DB  0x0,0x54,0x54,0x7C,0x0,0x0,0x7C,0x8
0000cb 7c10
0000cc 7c00
0000cd 9008
0000ce 007c      	.DB  0x10,0x7C,0x0,0x7C,0x8,0x90,0x7C,0x0
0000cf 107c
0000d0 006c
0000d1 3c00
0000d2 7c40      	.DB  0x7C,0x10,0x6C,0x0,0x0,0x3C,0x40,0x7C
0000d3 7c00
0000d4 1020
0000d5 7c20
0000d6 7c00      	.DB  0x0,0x7C,0x20,0x10,0x20,0x7C,0x0,0x7C
0000d7 7c10
0000d8 0000
0000d9 4438
0000da 0038      	.DB  0x10,0x7C,0x0,0x0,0x38,0x44,0x38,0x0
0000db 7c00
0000dc 7c40
0000dd 0000
0000de 507c      	.DB  0x0,0x7C,0x40,0x7C,0x0,0x0,0x7C,0x50
0000df 0070
0000e0 3800
0000e1 4444
0000e2 4000      	.DB  0x70,0x0,0x0,0x38,0x44,0x44,0x0,0x40
0000e3 7c40
0000e4 4040
0000e5 7400
0000e6 7c14      	.DB  0x40,0x7C,0x40,0x40,0x0,0x74,0x14,0x7C
0000e7 7000
0000e8 7c50
0000e9 7050
0000ea 6c00      	.DB  0x0,0x70,0x50,0x7C,0x50,0x70,0x0,0x6C
0000eb 6c10
0000ec 0000
0000ed 047c
0000ee 027c      	.DB  0x10,0x6C,0x0,0x0,0x7C,0x4,0x7C,0x2
0000ef 7000
0000f0 7c10
0000f1 7c00
0000f2 7c04      	.DB  0x0,0x70,0x10,0x7C,0x0,0x7C,0x4,0x7C
0000f3 7c04
0000f4 047c
0000f5 047c
0000f6 407e      	.DB  0x4,0x7C,0x7C,0x4,0x7C,0x4,0x7E,0x40
0000f7 147c
0000f8 0008
0000f9 147c
0000fa 7c08      	.DB  0x7C,0x14,0x8,0x0,0x7C,0x14,0x8,0x7C
0000fb 0000
0000fc 147c
0000fd 0008
0000fe 5400      	.DB  0x0,0x0,0x7C,0x14,0x8,0x0,0x0,0x54
0000ff 3854
000100 7c00
000101 7c10
000102 7c44      	.DB  0x54,0x38,0x0,0x7C,0x10,0x7C,0x44,0x7C
000103 2804
000104 7c50
D:\prog\Atmega8\speed\List\1.asm(1147): warning: .cseg .db misalignment - padding zero byte
000105 0000      	.DB  0x4,0x28,0x50,0x7C,0x0
                 _m:
000106 ff00
000107 dbff
000108 dbdb
000109 dfdf      	.DB  0x0,0xFF,0xFF,0xDB,0xDB,0xDB,0xDF,0xDF
00010a 0000
00010b 0000
00010c ffff
00010d 60c0      	.DB  0x0,0x0,0x0,0x0,0xFF,0xFF,0xC0,0x60
00010e 1830
00010f 6030
000110 ffc0
000111 00ff      	.DB  0x30,0x18,0x30,0x60,0xC0,0xFF,0xFF,0x0
000112 0000
000113 c0c0
000114 c0c0
000115 ffff      	.DB  0x0,0x0,0xC0,0xC0,0xC0,0xC0,0xFF,0xFF
000116 c0c0
000117 c0c0
000118 0000
000119 0000      	.DB  0xC0,0xC0,0xC0,0xC0,0x0,0x0,0x0,0x0
00011a ff00
00011b dbff
00011c dbdb
00011d dfdf      	.DB  0x0,0xFF,0xFF,0xDB,0xDB,0xDB,0xDF,0xDF
00011e 0000
00011f 0000
000120 ffff
000121 60c0      	.DB  0x0,0x0,0x0,0x0,0xFF,0xFF,0xC0,0x60
000122 1830
000123 6030
000124 ffc0
000125 00ff      	.DB  0x30,0x18,0x30,0x60,0xC0,0xFF,0xFF,0x0
000126 0000
000127 c0c0
000128 c0c0
000129 ffff      	.DB  0x0,0x0,0xC0,0xC0,0xC0,0xC0,0xFF,0xFF
00012a c0c0
00012b c0c0
00012c 0000
00012d 0000      	.DB  0xC0,0xC0,0xC0,0xC0,0x0,0x0,0x0,0x0
00012e 0000
00012f 0000
000130 0000
000131 1800      	.DB  0x0,0x0,0x0,0x0,0x0,0x0,0x0,0x18
000132 4224
000133 8181
000134 bd81
000135 8995      	.DB  0x24,0x42,0x81,0x81,0x81,0xBD,0x95,0x89
000136 bd81
000137 91a1
000138 bda1
000139 a181      	.DB  0x81,0xBD,0xA1,0x91,0xA1,0xBD,0x81,0xA1
00013a a1bd
00013b 8181
00013c 8181
00013d 2442      	.DB  0xBD,0xA1,0x81,0x81,0x81,0x81,0x42,0x24
00013e 0018
00013f 0000
000140 0000
000141 0000      	.DB  0x18,0x0,0x0,0x0,0x0,0x0,0x0,0x0
000142 0000
000143 0000
000144 0000
000145 1800      	.DB  0x0,0x0,0x0,0x0,0x0,0x0,0x0,0x18
000146 4224
000147 8181
000148 bd81
000149 8995      	.DB  0x24,0x42,0x81,0x81,0x81,0xBD,0x95,0x89
00014a bd81
00014b 91a1
00014c bda1
00014d a181      	.DB  0x81,0xBD,0xA1,0x91,0xA1,0xBD,0x81,0xA1
00014e a1bd
00014f 8181
000150 8181
000151 2442      	.DB  0xBD,0xA1,0x81,0x81,0x81,0x81,0x42,0x24
000152 0018
000153 0000
000154 0000
000155 0000      	.DB  0x18,0x0,0x0,0x0,0x0,0x0,0x0,0x0
000156 0000
000157 0000
000158 0800
000159 1414      	.DB  0x0,0x0,0x0,0x0,0x0,0x8,0x14,0x14
00015a 2214
00015b 2222
00015c 2222
00015d 2222      	.DB  0x14,0x22,0x22,0x22,0x22,0x22,0x22,0x22
00015e 2222
00015f 2222
000160 4163
000161 4141      	.DB  0x22,0x22,0x22,0x22,0x63,0x41,0x41,0x41
000162 4141
000163 4141
000164 4141
000165 4141      	.DB  0x41,0x41,0x41,0x41,0x41,0x41,0x41,0x41
000166 81c1
000167 8181
000168 8181
000169 8181      	.DB  0xC1,0x81,0x81,0x81,0x81,0x81,0x81,0x81
00016a 8181
00016b 8181
00016c 8181
00016d 41c1      	.DB  0x81,0x81,0x81,0x81,0x81,0x81,0xC1,0x41
00016e 4141
00016f 4141
000170 4141
000171 4141      	.DB  0x41,0x41,0x41,0x41,0x41,0x41,0x41,0x41
000172 4141
000173 2263
000174 2222
000175 2222      	.DB  0x41,0x41,0x63,0x22,0x22,0x22,0x22,0x22
000176 2222
000177 2222
000178 2222
000179 1414      	.DB  0x22,0x22,0x22,0x22,0x22,0x22,0x14,0x14
00017a 0814
00017b 0000
00017c 0000
00017d 0000      	.DB  0x14,0x8,0x0,0x0,0x0,0x0,0x0,0x0
00017e 0000
00017f 0000
000180 3800
000181 8244      	.DB  0x0,0x0,0x0,0x0,0x0,0x38,0x44,0x82
000182 2141
000183 8241
000184 3844
000185 0000      	.DB  0x41,0x21,0x41,0x82,0x44,0x38,0x0,0x0
000186 0000
000187 0000
000188 0000
000189 0000      	.DB  0x0,0x0,0x0,0x0,0x0,0x0,0x0,0x0
00018a 3800
00018b 8244
00018c 2747
00018d 8247      	.DB  0x0,0x38,0x44,0x82,0x47,0x27,0x47,0x82
00018e 3844
00018f 0000
000190 0000
000191 0000      	.DB  0x44,0x38,0x0,0x0,0x0,0x0,0x0,0x0
000192 0000
000193 0000
000194 3800
000195 8644      	.DB  0x0,0x0,0x0,0x0,0x0,0x38,0x44,0x86
000196 2f4f
000197 9e4f
000198 385c
000199 0000      	.DB  0x4F,0x2F,0x4F,0x9E,0x5C,0x38,0x0,0x0
00019a 0000
00019b 0000
00019c 0000
00019d 0000      	.DB  0x0,0x0,0x0,0x0,0x0,0x0,0x0,0x0
00019e 3800
00019f fe7c
0001a0 3f7f
0001a1 fe7f      	.DB  0x0,0x38,0x7C,0xFE,0x7F,0x3F,0x7F,0xFE
0001a2 387c
0001a3 0000
0001a4 0000
0001a5 0000      	.DB  0x7C,0x38,0x0,0x0,0x0,0x0,0x0,0x0
0001a6 83c1
0001a7 83c1
0001a8 83c1
0001a9 83c1      	.DB  0xC1,0x83,0xC1,0x83,0xC1,0x83,0xC1,0x83
0001aa 83c1
0001ab 83c1
0001ac 83c1
0001ad 83c1      	.DB  0xC1,0x83,0xC1,0x83,0xC1,0x83,0xC1,0x83
0001ae 83c1
0001af 83c1
0001b0 83c1
0001b1 83c1      	.DB  0xC1,0x83,0xC1,0x83,0xC1,0x83,0xC1,0x83
0001b2 83c1
0001b3 83c1
0001b4 83c1
0001b5 83c1      	.DB  0xC1,0x83,0xC1,0x83,0xC1,0x83,0xC1,0x83
0001b6 83c1
0001b7 83c1
0001b8 83c1
0001b9 83c1      	.DB  0xC1,0x83,0xC1,0x83,0xC1,0x83,0xC1,0x83
0001ba 83c1
0001bb 83c1
0001bc 83c1
0001bd 83c1      	.DB  0xC1,0x83,0xC1,0x83,0xC1,0x83,0xC1,0x83
0001be 83c1
0001bf 83c1
0001c0 83c1
0001c1 83c1      	.DB  0xC1,0x83,0xC1,0x83,0xC1,0x83,0xC1,0x83
0001c2 83c1
0001c3 83c1
0001c4 83c1
0001c5 83c1      	.DB  0xC1,0x83,0xC1,0x83,0xC1,0x83,0xC1,0x83
0001c6 83c1
0001c7 83c1
0001c8 83c1
0001c9 83c1      	.DB  0xC1,0x83,0xC1,0x83,0xC1,0x83,0xC1,0x83
0001ca 83c1
0001cb 83c1
0001cc 83c1
0001cd 83c1      	.DB  0xC1,0x83,0xC1,0x83,0xC1,0x83,0xC1,0x83
0001ce 8381
0001cf 8381
0001d0 8381
0001d1 8381      	.DB  0x81,0x83,0x81,0x83,0x81,0x83,0x81,0x83
0001d2 8381
0001d3 8381
0001d4 8381
0001d5 8381      	.DB  0x81,0x83,0x81,0x83,0x81,0x83,0x81,0x83
0001d6 8381
0001d7 8381
0001d8 8381
0001d9 8381      	.DB  0x81,0x83,0x81,0x83,0x81,0x83,0x81,0x83
0001da 8381
0001db 8381
0001dc 8381
0001dd 8381      	.DB  0x81,0x83,0x81,0x83,0x81,0x83,0x81,0x83
0001de 8381
0001df 8381
0001e0 8381
0001e1 8381      	.DB  0x81,0x83,0x81,0x83,0x81,0x83,0x81,0x83
0001e2 8381
0001e3 8381
0001e4 8381
0001e5 8381      	.DB  0x81,0x83,0x81,0x83,0x81,0x83,0x81,0x83
0001e6 8381
0001e7 8381
0001e8 8381
0001e9 8381      	.DB  0x81,0x83,0x81,0x83,0x81,0x83,0x81,0x83
0001ea 8381
0001eb 8381
0001ec 8381
0001ed 8381      	.DB  0x81,0x83,0x81,0x83,0x81,0x83,0x81,0x83
0001ee 8381
0001ef 8381
0001f0 8381
0001f1 8381      	.DB  0x81,0x83,0x81,0x83,0x81,0x83,0x81,0x83
0001f2 8381
0001f3 8381
0001f4 8381
0001f5 8381      	.DB  0x81,0x83,0x81,0x83,0x81,0x83,0x81,0x83
0001f6 8281
0001f7 8281
0001f8 8281
0001f9 8281      	.DB  0x81,0x82,0x81,0x82,0x81,0x82,0x81,0x82
0001fa 8281
0001fb 8281
0001fc 8281
0001fd 8281      	.DB  0x81,0x82,0x81,0x82,0x81,0x82,0x81,0x82
0001fe 8281
0001ff 8281
000200 8281
000201 8281      	.DB  0x81,0x82,0x81,0x82,0x81,0x82,0x81,0x82
000202 8281
000203 8281
000204 8281
000205 8281      	.DB  0x81,0x82,0x81,0x82,0x81,0x82,0x81,0x82
000206 8281
000207 8281
000208 8281
000209 8281      	.DB  0x81,0x82,0x81,0x82,0x81,0x82,0x81,0x82
00020a 8281
00020b 8281
00020c 8281
00020d 8281      	.DB  0x81,0x82,0x81,0x82,0x81,0x82,0x81,0x82
00020e 8281
00020f 8281
000210 8281
000211 8281      	.DB  0x81,0x82,0x81,0x82,0x81,0x82,0x81,0x82
000212 8281
000213 8281
000214 8281
000215 8281      	.DB  0x81,0x82,0x81,0x82,0x81,0x82,0x81,0x82
000216 8281
000217 8281
000218 8281
000219 8281      	.DB  0x81,0x82,0x81,0x82,0x81,0x82,0x81,0x82
00021a 8281
00021b 8281
00021c 8281
00021d 8281      	.DB  0x81,0x82,0x81,0x82,0x81,0x82,0x81,0x82
00021e 83c1
00021f 8383
000220 83c1
000221 8383      	.DB  0xC1,0x83,0x83,0x83,0xC1,0x83,0x83,0x83
000222 83c1
000223 8383
000224 83c1
000225 8383      	.DB  0xC1,0x83,0x83,0x83,0xC1,0x83,0x83,0x83
000226 83c1
000227 8383
000228 83c1
000229 8383      	.DB  0xC1,0x83,0x83,0x83,0xC1,0x83,0x83,0x83
00022a 83c1
00022b 8383
00022c 83c1
00022d 8383      	.DB  0xC1,0x83,0x83,0x83,0xC1,0x83,0x83,0x83
00022e 83c1
00022f 8383
000230 83c1
000231 8383      	.DB  0xC1,0x83,0x83,0x83,0xC1,0x83,0x83,0x83
000232 83c1
000233 8383
000234 83c1
000235 8383      	.DB  0xC1,0x83,0x83,0x83,0xC1,0x83,0x83,0x83
000236 83c1
000237 8383
000238 83c1
000239 8383      	.DB  0xC1,0x83,0x83,0x83,0xC1,0x83,0x83,0x83
00023a 83c1
00023b 8383
00023c 83c1
00023d 8383      	.DB  0xC1,0x83,0x83,0x83,0xC1,0x83,0x83,0x83
00023e 83c1
00023f 8383
000240 83c1
000241 8383      	.DB  0xC1,0x83,0x83,0x83,0xC1,0x83,0x83,0x83
000242 83c1
000243 8383
000244 83c1
000245 8383      	.DB  0xC1,0x83,0x83,0x83,0xC1,0x83,0x83,0x83
                 _conv_delay_G102:
000246 0064
000247 00c8
000248 0190
000249 0320      	.DB  0x64,0x0,0xC8,0x0,0x90,0x1,0x20,0x3
                 _bit_mask_G102:
00024a fff8
00024b fffc
00024c fffe
00024d ffff      	.DB  0xF8,0xFF,0xFC,0xFF,0xFE,0xFF,0xFF,0xFF
                 
                 ;REGISTER BIT VARIABLES INITIALIZATION
                 __REG_BIT_VARS:
00024e 0000      	.DW  0x0000
                 
                 _0x3:
00024f 012c      	.DB  0x2C,0x1
                 _0x4:
000250 04c8
000251 04cf
000252 04d7
000253 04dd      	.DB  LOW(_0x0*2),HIGH(_0x0*2),LOW(_0x0*2+7),HIGH(_0x0*2+7),LOW(_0x0*2+15),HIGH(_0x0*2+15),LOW(_0x0*2+21),HIGH(_0x0*2+21)
000254 04e4
000255 04e8
000256 04ed
000257 04f2      	.DB  LOW(_0x0*2+28),HIGH(_0x0*2+28),LOW(_0x0*2+32),HIGH(_0x0*2+32),LOW(_0x0*2+37),HIGH(_0x0*2+37),LOW(_0x0*2+42),HIGH(_0x0*2+42)
000258 04fa
000259 0503
00025a 050b
00025b 0512      	.DB  LOW(_0x0*2+50),HIGH(_0x0*2+50),LOW(_0x0*2+59),HIGH(_0x0*2+59),LOW(_0x0*2+67),HIGH(_0x0*2+67),LOW(_0x0*2+74),HIGH(_0x0*2+74)
                 _0x5:
00025c 051a
00025d 0526
00025e 052e
00025f 0534      	.DB  LOW(_0x0*2+82),HIGH(_0x0*2+82),LOW(_0x0*2+94),HIGH(_0x0*2+94),LOW(_0x0*2+102),HIGH(_0x0*2+102),LOW(_0x0*2+108),HIGH(_0x0*2+108)
000260 053c
000261 0544
000262 054c      	.DB  LOW(_0x0*2+116),HIGH(_0x0*2+116),LOW(_0x0*2+124),HIGH(_0x0*2+124),LOW(_0x0*2+132),HIGH(_0x0*2+132)
                 _0x95:
000263 0000      	.DB  0x0,0x0
                 _0x0:
000264 eddf
000265 e0e2
000266 fff0
000267 d400      	.DB  0xDF,0xED,0xE2,0xE0,0xF0,0xFF,0x0,0xD4
000268 e2e5
000269 e0f0
00026a ffeb
00026b cc00      	.DB  0xE5,0xE2,0xF0,0xE0,0xEB,0xFF,0x0,0xCC
00026c f0e0
00026d e0f2
00026e c000
00026f f0ef      	.DB  0xE0,0xF0,0xF2,0xE0,0x0,0xC0,0xEF,0xF0
000270 ebe5
000271 00ff
000272 e0cc
000273 00ff      	.DB  0xE5,0xEB,0xFF,0x0,0xCC,0xE0,0xFF,0x0
000274 fec8
000275 ffed
000276 c800
000277 ebfe      	.DB  0xC8,0xFE,0xED,0xFF,0x0,0xC8,0xFE,0xEB
000278 00ff
000279 e2c0
00027a f3e3
00027b f2f1      	.DB  0xFF,0x0,0xC0,0xE2,0xE3,0xF3,0xF1,0xF2
00027c 00e0
00027d e5d1
00027e f2ed
00027f e1ff      	.DB  0xE0,0x0,0xD1,0xE5,0xED,0xF2,0xFF,0xE1
000280 fff0
000281 ce00
000282 f2ea
000283 e1ff      	.DB  0xF0,0xFF,0x0,0xCE,0xEA,0xF2,0xFF,0xE1
000284 fff0
000285 cd00
000286 ffee
000287 f0e1      	.DB  0xF0,0xFF,0x0,0xCD,0xEE,0xFF,0xE1,0xF0
000288 00ff
000289 e5c4
00028a e0ea
00028b f0e1      	.DB  0xFF,0x0,0xC4,0xE5,0xEA,0xE0,0xE1,0xF0
00028c 00ff
00028d eecf
00028e e5ed
00028f e5e4      	.DB  0xFF,0x0,0xCF,0xEE,0xED,0xE5,0xE4,0xE5
000290 fceb
000291 e8ed
000292 00ea
000293 f2c2      	.DB  0xEB,0xFC,0xED,0xE8,0xEA,0x0,0xC2,0xF2
000294 f0ee
000295 e8ed
000296 00ea
000297 f0d1      	.DB  0xEE,0xF0,0xED,0xE8,0xEA,0x0,0xD1,0xF0
000298 e4e5
000299 00e0
00029a e5d7
00029b e2f2      	.DB  0xE5,0xE4,0xE0,0x0,0xD7,0xE5,0xF2,0xE2
00029c f0e5
00029d 00e3
00029e ffcf
00029f edf2      	.DB  0xE5,0xF0,0xE3,0x0,0xCF,0xFF,0xF2,0xED
0002a0 f6e8
0002a1 00e0
0002a2 f3d1
0002a3 e1e1      	.DB  0xE8,0xF6,0xE0,0x0,0xD1,0xF3,0xE1,0xE1
0002a4 f2ee
0002a5 00e0
0002a6 eec2
0002a7 eaf1      	.DB  0xEE,0xF2,0xE0,0x0,0xC2,0xEE,0xF1,0xEA
0002a8 e5f0
0002a9 e5f1
0002aa fced
0002ab 00e5      	.DB  0xF0,0xE5,0xF1,0xE5,0xED,0xFC,0xE5,0x0
0002ac e0c7
0002ad f3ef
0002ae eaf1
0002af 2e2e      	.DB  0xC7,0xE0,0xEF,0xF3,0xF1,0xEA,0x2E,0x2E
0002b0 002e
0002b1 20c2
0002b2 eeea
0002b3 edec      	.DB  0x2E,0x0,0xC2,0x20,0xEA,0xEE,0xEC,0xED
0002b4 f2e0
0002b5 3ae5
0002b6 6300
0002b7 c200      	.DB  0xE0,0xF2,0xE5,0x3A,0x0,0x63,0x0,0xC2
0002b8 e5f0
0002b9 ffec
0002ba 203a
0002bb 0020      	.DB  0xF0,0xE5,0xEC,0xFF,0x3A,0x20,0x20,0x0
0002bc 0030
0002bd 3220
0002be 0030
0002bf 5641      	.DB  0x30,0x0,0x20,0x32,0x30,0x0,0x41,0x56
0002c0 2052
0002c1 5441
0002c2 454d
0002c3 4147      	.DB  0x52,0x20,0x41,0x54,0x4D,0x45,0x47,0x41
0002c4 3820
0002c5 c300
0002c6 cec0
0002c7 20d3      	.DB  0x20,0x38,0x0,0xC3,0xC0,0xCE,0xD3,0x20
0002c8 cfd1
0002c9 20ce
0002ca ccc1
0002cb 00d2      	.DB  0xD1,0xCF,0xCE,0x20,0xC1,0xCC,0xD2,0x0
0002cc d0ca
0002cd c0c5
0002ce c8d2
0002cf 00c2      	.DB  0xCA,0xD0,0xC5,0xC0,0xD2,0xC8,0xC2,0x0
0002d0 2ec3
0002d1 c120
0002d2 c3d3
0002d3 cbd3      	.DB  0xC3,0x2E,0x20,0xC1,0xD3,0xC3,0xD3,0xCB
0002d4 ccdc
0002d5 00c0
0002d6 cbc4
0002d7 20df      	.DB  0xDC,0xCC,0xC0,0x0,0xC4,0xCB,0xDF,0x20
0002d8 c0ca
0002d9 c0c7
0002da c8cd
0002db 3d00      	.DB  0xCA,0xC0,0xC7,0xC0,0xCD,0xC8,0x0,0x3D
0002dc 2029
0002dd 293a
0002de 5e20
0002df 5e5f      	.DB  0x29,0x20,0x3A,0x29,0x20,0x5E,0x5F,0x5E
0002e0 3b20
0002e1 292d
0002e2 4200
0002e3 4f4f      	.DB  0x20,0x3B,0x2D,0x29,0x0,0x42,0x4F,0x4F
0002e4 214d
0002e5 2121
0002e6 3a20
0002e7 442d      	.DB  0x4D,0x21,0x21,0x21,0x20,0x3A,0x2D,0x44
D:\prog\Atmega8\speed\List\1.asm(1283): warning: .cseg .db misalignment - padding zero byte
0002e8 0000      	.DB  0x0
                 _0x2020060:
D:\prog\Atmega8\speed\List\1.asm(1285): warning: .cseg .db misalignment - padding zero byte
0002e9 0001      	.DB  0x1
                 _0x2020000:
0002ea 4e2d
0002eb 4e41
0002ec 4900
0002ed 464e      	.DB  0x2D,0x4E,0x41,0x4E,0x0,0x49,0x4E,0x46
D:\prog\Atmega8\speed\List\1.asm(1288): warning: .cseg .db misalignment - padding zero byte
0002ee 0000      	.DB  0x0
                 
                 __GLOBAL_INI_TBL:
0002ef 0001      	.DW  0x01
0002f0 0002      	.DW  0x02
0002f1 049c      	.DW  __REG_BIT_VARS*2
                 
0002f2 0002      	.DW  0x02
0002f3 02e9      	.DW  _counter
0002f4 049e      	.DW  _0x3*2
                 
0002f5 0018      	.DW  0x18
0002f6 03ea      	.DW  _month
0002f7 04a0      	.DW  _0x4*2
                 
0002f8 000e      	.DW  0x0E
0002f9 0402      	.DW  _week
0002fa 04b8      	.DW  _0x5*2
                 
0002fb 000a      	.DW  0x0A
0002fc 0260      	.DW  _0x7E
0002fd 0558      	.DW  _0x0*2+144
                 
0002fe 0001      	.DW  0x01
0002ff 026a      	.DW  _0x7E+10
000300 04ce      	.DW  _0x0*2+6
                 
000301 000b      	.DW  0x0B
000302 026b      	.DW  _0x7E+11
000303 0562      	.DW  _0x0*2+154
                 
000304 0002      	.DW  0x02
000305 0276      	.DW  _0x7E+22
000306 056d      	.DW  _0x0*2+165
                 
000307 0009      	.DW  0x09
000308 0278      	.DW  _0x7E+24
000309 056f      	.DW  _0x0*2+167
                 
00030a 0002      	.DW  0x02
00030b 0281      	.DW  _0x7E+33
00030c 056b      	.DW  _0x0*2+163
                 
00030d 0002      	.DW  0x02
00030e 0283      	.DW  _0x7E+35
00030f 0578      	.DW  _0x0*2+176
                 
000310 0002      	.DW  0x02
000311 0285      	.DW  _0x7E+37
000312 0576      	.DW  _0x0*2+174
                 
000313 0004      	.DW  0x04
000314 0287      	.DW  _0x7E+39
000315 057a      	.DW  _0x0*2+178
                 
000316 000d      	.DW  0x0D
000317 028b      	.DW  _0x7E+43
000318 057e      	.DW  _0x0*2+182
                 
000319 000d      	.DW  0x0D
00031a 0298      	.DW  _0x7E+56
00031b 058b      	.DW  _0x0*2+195
                 
00031c 0008      	.DW  0x08
00031d 02a5      	.DW  _0x7E+69
00031e 0598      	.DW  _0x0*2+208
                 
00031f 000c      	.DW  0x0C
000320 02ad      	.DW  _0x7E+77
000321 05a0      	.DW  _0x0*2+216
                 
000322 000b      	.DW  0x0B
000323 02b9      	.DW  _0x7E+89
000324 05ac      	.DW  _0x0*2+228
                 
000325 000e      	.DW  0x0E
000326 02c4      	.DW  _0x7E+100
000327 05b7      	.DW  _0x0*2+239
                 
000328 000c      	.DW  0x0C
000329 02d2      	.DW  _0x7E+114
00032a 05c5      	.DW  _0x0*2+253
                 
00032b 0002      	.DW  0x02
00032c 0004      	.DW  0x04
00032d 04c6      	.DW  _0x95*2
                 
00032e 0001      	.DW  0x01
00032f 0417      	.DW  __seed_G101
000330 05d2      	.DW  _0x2020060*2
                 
                 _0xFFFFFFFF:
000331 0000      	.DW  0
                 
                 __RESET:
000332 94f8      	CLI
000333 27ee      	CLR  R30
000334 bbec      	OUT  EECR,R30
                 
                 ;INTERRUPT VECTORS ARE PLACED
                 ;AT THE START OF FLASH
000335 e0f1      	LDI  R31,1
000336 bffb      	OUT  GICR,R31
000337 bfeb      	OUT  GICR,R30
000338 bfe5      	OUT  MCUCR,R30
                 
                 ;DISABLE WATCHDOG
000339 e1f8      	LDI  R31,0x18
00033a bdf1      	OUT  WDTCR,R31
00033b bde1      	OUT  WDTCR,R30
                 
                 ;CLEAR R2-R14
00033c e08d      	LDI  R24,(14-2)+1
00033d e0a2      	LDI  R26,2
00033e 27bb      	CLR  R27
                 __CLEAR_REG:
00033f 93ed      	ST   X+,R30
000340 958a      	DEC  R24
000341 f7e9      	BRNE __CLEAR_REG
                 
                 ;CLEAR SRAM
000342 e080      	LDI  R24,LOW(__CLEAR_SRAM_SIZE)
000343 e094      	LDI  R25,HIGH(__CLEAR_SRAM_SIZE)
000344 e6a0      	LDI  R26,__SRAM_START
                 __CLEAR_SRAM:
000345 93ed      	ST   X+,R30
000346 9701      	SBIW R24,1
000347 f7e9      	BRNE __CLEAR_SRAM
                 
                 ;GLOBAL VARIABLES INITIALIZATION
000348 edee      	LDI  R30,LOW(__GLOBAL_INI_TBL*2)
000349 e0f5      	LDI  R31,HIGH(__GLOBAL_INI_TBL*2)
                 __GLOBAL_INI_NEXT:
00034a 9185      	LPM  R24,Z+
00034b 9195      	LPM  R25,Z+
00034c 9700      	SBIW R24,0
00034d f061      	BREQ __GLOBAL_INI_END
00034e 91a5      	LPM  R26,Z+
00034f 91b5      	LPM  R27,Z+
000350 9005      	LPM  R0,Z+
000351 9015      	LPM  R1,Z+
000352 01bf      	MOVW R22,R30
000353 01f0      	MOVW R30,R0
                 __GLOBAL_INI_LOOP:
000354 9005      	LPM  R0,Z+
000355 920d      	ST   X+,R0
000356 9701      	SBIW R24,1
000357 f7e1      	BRNE __GLOBAL_INI_LOOP
000358 01fb      	MOVW R30,R22
000359 cff0      	RJMP __GLOBAL_INI_NEXT
                 __GLOBAL_INI_END:
                 
                 ;HARDWARE STACK POINTER INITIALIZATION
00035a e5ef      	LDI  R30,LOW(__SRAM_END-__HEAP_SIZE)
00035b bfed      	OUT  SPL,R30
00035c e0e4      	LDI  R30,HIGH(__SRAM_END-__HEAP_SIZE)
00035d bfee      	OUT  SPH,R30
                 
                 ;DATA STACK POINTER INITIALIZATION
00035e e6c0      	LDI  R28,LOW(__SRAM_START+__DSTACK_SIZE)
00035f e0d2      	LDI  R29,HIGH(__SRAM_START+__DSTACK_SIZE)
                 
000360 c35d      	RJMP _main
                 
                 	.ESEG
                 	.ORG 0
                 
                 	.DSEG
                 	.ORG 0x260
                 
                 	.CSEG
                 ;#define R(D) { PORTD=D ; PORTC.3=PORTD.2;}
                 ;#define B PORTB
                 ;#define rc PORTC.5
                 ;#define bc PORTC.4
                 ;#define ALL 80
                 ;#define PD2 PIND.2
                 ;#define POWER 12
                 ;#define DISPLAY 15
                 ;#define MINUS 21
                 ;#define PLUS 22
                 ;#define DOWN 17
                 ;#define UP 16
                 ;#define MENU 18
                 ;#define HELP 47
                 ;#define SLEEP 38
                 ;#define MUTE 13
                 ;#define VIDEO 56
                 ;#define TV 63
                 ;#define STD 14
                 ;#include <mega8.h>
                 	#ifndef __SLEEP_DEFINED__
                 	#define __SLEEP_DEFINED__
                 	.EQU __se_bit=0x80
                 	.EQU __sm_mask=0x70
                 	.EQU __sm_powerdown=0x20
                 	.EQU __sm_powersave=0x30
                 	.EQU __sm_standby=0x60
                 	.EQU __sm_ext_standby=0x70
                 	.EQU __sm_adc_noise_red=0x10
                 	.SET power_ctrl_reg=mcucr
                 	#endif
                 ;#include <delay.h>
                 ;#include <string.h>
                 ;#include <stdlib.h>
                 ;#include <i2c.h>
                 ;#include <1wire.h>
                 ;#include <ds18b20.h>
                 ;    #asm
                         .equ __i2c_port=0x15
                         .equ __sda_bit=1
                         .equ __scl_bit=0
                 ; 0000 001F     #endasm
                 ;#include <ds1307.h>
                 ;#include "fonts.c"
                 ;/*flash unsigned char num[][5]=
                 ;{
                 ;0x00, 0x00, 0x00, 0x00, 0x00,// (space)  32
                 ;0x00, 0x00, 0x5F, 0x00, 0x00,// !        33
                 ;0x00, 0x07, 0x00, 0x07, 0x00,// "        34
                 ;0x14, 0x7F, 0x14, 0x7F, 0x14,// #        35
                 ;0x24, 0x2A, 0x7F, 0x2A, 0x12,// $        36
                 ;0x23, 0x13, 0x08, 0x64, 0x62,// %        37
                 ;0x36, 0x49, 0x55, 0x22, 0x50,// &        38
                 ;0x00, 0x05, 0x03, 0x00, 0x00,// '        39
                 ;0x00, 0x1C, 0x22, 0x41, 0x00,// (        40
                 ;0x00, 0x41, 0x22, 0x1C, 0x00,// )        41
                 ;0x08, 0x2A, 0x1C, 0x2A, 0x08,// *        42
                 ;0x08, 0x08, 0x3E, 0x08, 0x08,// +        43
                 ;0x00, 0x50, 0x30, 0x00, 0x00,// ,        44
                 ;0x08, 0x08, 0x08, 0x08, 0x08,// -        45
                 ;0x00, 0x30, 0x30, 0x00, 0x00,// .        46
                 ;0x20, 0x10, 0x08, 0x04, 0x02,// /        47
                 ;0x3E, 0x51, 0x49, 0x45, 0x3E,// 0        48
                 ;0x00, 0x42, 0x7F, 0x40, 0x00,// 1        49
                 ;0x42, 0x61, 0x51, 0x49, 0x46,// 2        50
                 ;0x21, 0x41, 0x45, 0x4B, 0x31,// 3        51
                 ;0x18, 0x14, 0x12, 0x7F, 0x10,// 4        52
                 ;0x27, 0x45, 0x45, 0x45, 0x39,// 5        53
                 ;0x3C, 0x4A, 0x49, 0x49, 0x30,// 6        54
                 ;0x01, 0x71, 0x09, 0x05, 0x03,// 7        55
                 ;0x36, 0x49, 0x49, 0x49, 0x36,// 8        56
                 ;0x06, 0x49, 0x49, 0x29, 0x1E,// 9        57
                 ;0x00, 0x36, 0x36, 0x00, 0x00,// :        58
                 ;0x00, 0x56, 0x36, 0x00, 0x00,// ;        59
                 ;0x00, 0x08, 0x14, 0x22, 0x41,// <        60
                 ;0x14, 0x14, 0x14, 0x14, 0x14,// =        61
                 ;0x41, 0x22, 0x14, 0x08, 0x00,// >        62
                 ;0x02, 0x01, 0x51, 0x09, 0x06,// ?        63
                 ;0x32, 0x49, 0x79, 0x41, 0x3E,// @        64
                 ;0x7E, 0x11, 0x11, 0x11, 0x7E,// A        65
                 ;0x7F, 0x49, 0x49, 0x49, 0x36,// B        66
                 ;0x3E, 0x41, 0x41, 0x41, 0x22,// C        67
                 ;0x7F, 0x41, 0x41, 0x22, 0x1C,// D        68
                 ;0x7F, 0x49, 0x49, 0x49, 0x41,// E        69
                 ;0x7F, 0x09, 0x09, 0x01, 0x01,// F        70
                 ;0x3E, 0x41, 0x41, 0x51, 0x32,// G        71
                 ;0x7F, 0x08, 0x08, 0x08, 0x7F,// H        72
                 ;0x00, 0x41, 0x7F, 0x41, 0x00,// I        73
                 ;0x20, 0x40, 0x41, 0x3F, 0x01,// J        74
                 ;0x7F, 0x08, 0x14, 0x22, 0x41,// K        75
                 ;0x7F, 0x40, 0x40, 0x40, 0x40,// L        76
                 ;0x7F, 0x02, 0x04, 0x02, 0x7F,// M        77
                 ;0x7F, 0x04, 0x08, 0x10, 0x7F,// N        78
                 ;0x3E, 0x41, 0x41, 0x41, 0x3E,// O        79
                 ;0x7F, 0x09, 0x09, 0x09, 0x06,// P        80
                 ;0x3E, 0x41, 0x51, 0x21, 0x5E,// Q        81
                 ;0x7F, 0x09, 0x19, 0x29, 0x46,// R        82
                 ;0x46, 0x49, 0x49, 0x49, 0x31,// S        83
                 ;0x01, 0x01, 0x7F, 0x01, 0x01,// T        84
                 ;0x3F, 0x40, 0x40, 0x40, 0x3F,// U        85
                 ;0x1F, 0x20, 0x40, 0x20, 0x1F,// V        86
                 ;0x7F, 0x20, 0x18, 0x20, 0x7F,// W        87
                 ;0x63, 0x14, 0x08, 0x14, 0x63,// X        88
                 ;0x03, 0x04, 0x78, 0x04, 0x03,// Y        89
                 ;0x61, 0x51, 0x49, 0x45, 0x43,// Z        90
                 ;0x00, 0x00, 0x7F, 0x41, 0x41,// [        91
                 ;0x02, 0x04, 0x08, 0x10, 0x20,// "\"      92
                 ;0x41, 0x41, 0x7F, 0x00, 0x00,// ]        93
                 ;0x04, 0x02, 0x01, 0x02, 0x04,// ^        94
                 ;0x40, 0x40, 0x40, 0x40, 0x40,// _        95
                 ;0x00, 0x01, 0x02, 0x04, 0x00,// `        96
                 ;0x20, 0x54, 0x54, 0x54, 0x78,// a        97
                 ;0x7F, 0x48, 0x44, 0x44, 0x38,// b        98
                 ;0x38, 0x44, 0x44, 0x44, 0x20,// c        99
                 ;0x38, 0x44, 0x44, 0x48, 0x7F,// d        100
                 ;0x38, 0x54, 0x54, 0x54, 0x18,// e        101
                 ;0x08, 0x7E, 0x09, 0x01, 0x02,// f        102
                 ;0x08, 0x14, 0x54, 0x54, 0x3C,// g        103
                 ;0x7F, 0x08, 0x04, 0x04, 0x78,// h        104
                 ;0x00, 0x44, 0x7D, 0x40, 0x00,// i        105
                 ;0x20, 0x40, 0x44, 0x3D, 0x00,// j        106
                 ;0x00, 0x7F, 0x10, 0x28, 0x44,// k        107
                 ;0x00, 0x41, 0x7F, 0x40, 0x00,// l        108
                 ;0x7C, 0x04, 0x18, 0x04, 0x78,// m        109
                 ;0x7C, 0x08, 0x04, 0x04, 0x78,// n        110
                 ;0x38, 0x44, 0x44, 0x44, 0x38,// o        111
                 ;0x7C, 0x14, 0x14, 0x14, 0x08,// p        112
                 ;0x08, 0x14, 0x14, 0x18, 0x7C,// q        113
                 ;0x7C, 0x08, 0x04, 0x04, 0x08,// r        114
                 ;0x48, 0x54, 0x54, 0x54, 0x20,// s        115
                 ;0x04, 0x3F, 0x44, 0x40, 0x20,// t        116
                 ;0x3C, 0x40, 0x40, 0x20, 0x7C,// u        117
                 ;0x1C, 0x20, 0x40, 0x20, 0x1C,// v        118
                 ;0x3C, 0x40, 0x30, 0x40, 0x3C,// w        119
                 ;0x44, 0x28, 0x10, 0x28, 0x44,// x        120
                 ;0x0C, 0x50, 0x50, 0x50, 0x3C,// y        121
                 ;0x44, 0x64, 0x54, 0x4C, 0x44,// z        122
                 ;0x00, 0x08, 0x36, 0x41, 0x00,// {        123
                 ;0x00, 0x00, 0x7F, 0x00, 0x00,// |        124
                 ;0x00, 0x41, 0x36, 0x08, 0x00,// }        125
                 ;0x00, 0x00, 0x00, 0x00, 0x00,// (space)  126
                 ;0x00, 0x00, 0x00, 0x00, 0x00,// (space)  127
                 ;0x7E, 0x11, 0x11, 0x11, 0x7E,// A        192
                 ;0x7F, 0x45, 0x45, 0x45, 0x39,//         193
                 ;0x7F, 0x49, 0x49, 0x49, 0x36,// B        194
                 ;0x7F, 0x01, 0x01, 0x01, 0x03,//         195
                 ;0xC0, 0x7E, 0x41, 0x7F, 0xC0,//         196
                 ;0x7F, 0x49, 0x49, 0x49, 0x41,// E        197
                 ;119,8,127,8,119,             //         198
                 ;34,73,73,73,54,              //         199
                 ;127,32,16,8,127,             //         200
                 ;127,32,19,8,127,             //         201
                 ;0x7F, 0x08, 0x14, 0x22, 0x41,// K        202
                 ;64,62,1,1,127,               //         203
                 ;0x7F, 0x02, 0x04, 0x02, 0x7F,// M        204
                 ;0x7F, 0x08, 0x08, 0x08, 0x7F,// H        205
                 ;0x3E, 0x41, 0x41, 0x41, 0x3E,// O        206
                 ;127,1,1,1,127,               //         207
                 ;0x7F, 0x09, 0x09, 0x09, 0x06,// P        208
                 ;0x3E, 0x41, 0x41, 0x41, 0x22,// C        209
                 ;0x01, 0x01, 0x7F, 0x01, 0x01,// T        210
                 ;39,72,72,72,63,              //         211
                 ;30,33,127,33,30,             //         212
                 ;0x63, 0x14, 0x08, 0x14, 0x63,// X        213
                 ;127,64,64,127,192,           //         214
                 ;15,16,16,16,127,             //         215
                 ;127,64,124,64,127,           //         216
                 ;127,64,124,64,255,           //         217
                 ;1,127,72,72,48,              //         218
                 ;127,72,48,0,127,             //         219
                 ;127,72,72,72,48,             //         220
                 ;34,73,73,73,62,              //         221
                 ;127,8,62,65,62,              //         222
                 ;118,9,9,9,127,               //         223
                 ;0x20, 0x54, 0x54, 0x54, 0x78,// a        224
                 ;124, 84, 84, 84, 36,         //         225
                 ;124, 84, 84, 84, 40,         //         226
                 ;124, 4, 4, 4, 12,            //         227
                 ;192, 120, 68, 124, 192,      //         228
                 ;0x38, 0x54, 0x54, 0x54, 0x18,// e        229
                 ;108, 16, 124, 16, 108,       //         230
                 ;40, 68, 84, 84, 40,          //         231
                 ;124, 32, 16, 8, 124,         //         232
                 ;124, 33, 18, 8, 124,         //         233
                 ;124, 16, 16, 40, 68,         //         234
                 ;64, 56, 4, 4, 124,           //         235
                 ;124, 8, 16, 8, 124,          //         236
                 ;124, 16, 16, 16, 124,        //         237
                 ;0x38, 0x44, 0x44, 0x44, 0x38,// o        238
                 ;124, 4, 4, 4, 124,           //         239
                 ;0x7C, 0x14, 0x14, 0x14, 0x08,// p        240
                 ;0x38, 0x44, 0x44, 0x44, 0x20,// c        241
                 ;4, 4, 124, 4, 4,             //         242
                 ;0x0C, 0x50, 0x50, 0x50, 0x3C,// y        243
                 ;24, 36, 124, 36, 24,         //         244
                 ;0x44, 0x28, 0x10, 0x28, 0x44,// x        245
                 ;124, 64, 64, 124, 192,       //         246
                 ;12, 16, 16, 16, 124,         //         247
                 ;124, 64, 120, 64, 124,       //         248
                 ;124, 64, 120, 64, 252,       //         249
                 ;124, 84, 80, 80, 32,         //         250
                 ;124,80,32,0,124,             //         251
                 ;124, 80, 80, 80, 32,         //         252
                 ;40, 68, 84, 84, 56,          //         253
                 ;124, 16, 56, 68, 56,         //         254
                 ;72, 52, 20, 20, 124          //         255
                 ;};
                 ;*/
                 ;flash unsigned char num[][5]=
                 ;{
                 ;{0,0,0,0,0}, //   32
                 ;{0,0,116,0,0}, // !
                 ;{0,96,0,96,0}, //  "
                 ;{0,124,40,124,0}, // #
                 ;{0,52,214,88,0}, // $
                 ;{8,96,108,12,32}, // %
                 ;{0,120,84,24,32}, // &
                 ;{0,0,96,0,0}, // '
                 ;{0,0,56,68,0}, // (
                 ;{0,68,56,0,0}, //  )
                 ;{0,80,32,80,0}, // *
                 ;{0,16,56,16,0}, //  +
                 ;{0,12,12,2,0}, //  ,
                 ;{0,16,16,16,0}, //  -
                 ;{0,12,12,0,0}, //  .
                 ;{4,8,16,32,64}, //  /  47
                 ;{0,124,68,124,0},    // 0 48
                 ;{0,32,124,0,0},      // 1
                 ;{0,92,84,116,0},    // 2
                 ;{0,84,84,124,0},   //  3
                 ;{0,112,16,124,0},    //  4
                 ;{0,116,84,92,0},  //   5
                 ;{0,124,20,28,0},  //   6
                 ;{0,64,64,124,0}, //    7
                 ;{0,124,84,124,0}, //    8
                 ;{0,116,84,124,0}, //     9
                 ;{0,108,108,0,0}, // :  58
                 ;{0,2,108,108,0}, // ;
                 ;{0,16,40,68,0}, // <
                 ;{0,40,40,40,0}, //  =
                 ;{0,68,40,16,0}, //  >
                 ;{0,32,74,48,0}, //  ?
                 ;{0,124,84,116,0}, //  @  64
                 ;{0,60,72,60,0},// A        65
                 ;{0,124,84,56,0},// B        66
                 ;{0,56,68,68,0},// C        67
                 ;{0,124,68,56,0},// D        68
                 ;{0,124,84,84,0},// E        69
                 ;{0,124,80,80,0},// F        70
                 ;{0,124,84,92,0},// G        71
                 ;{0,124,16,124,0},// H        72
                 ;{0,68,124,68,0},// I        73
                 ;{0,76,68,124,64},// J        74
                 ;{0,124,16,108,0},// K        75
                 ;{0,124,4,4,0},// L        76
                 ;{124,32,16,32,124},// M        77
                 ;{0,60,64,64,60},// N        78
                 ;{0,56,68,56,0},// O        79
                 ;{0,124,80,112,0},// P        80
                 ;{0,124,68,120,2},// Q        81
                 ;{0,124,80,56,4},// R        82
                 ;{0,52,84,88,0},// S        83
                 ;{64,64,124,64,64},// T        84
                 ;{120,4,4,120,0},// U        85
                 ;{0,120,4,120,0},// V        86
                 ;{120,4,120,4,120},// W        87
                 ;{68,40,16,40,68},// X        88
                 ;{0,112,12,112,0},// Y        89
                 ;{0,76,84,100,0},// Z        90
                 ;{0,124,68,68,0},// [        91
                 ;{0,32,16,8,4},// "\"      92
                 ;{0,68,68,124,0},// ]        93
                 ;{0,32,64,32,0},// ^        94
                 ;{4,4,4,4,4},// _        95
                 ;{0,0,0,64,0},// `        96
                 ;{0,60,72,60,0}, //   192
                 ;{0,124,84,72,0}, //  
                 ;{0,124,84,56,0}, // 
                 ;{0,124,64,96,0}, // 
                 ;{12,112,80,112,12}, //
                 ;{0,124,84,84,0}, // 
                 ;{68,40,124,40,68}, //
                 ;{0,84,84,124,0}, // 
                 ;{0,124,8,16,124}, // 
                 ;{0,124,8,144,124}, //  
                 ;{0,124,16,108,0}, // 
                 ;{0,60,64,124,0}, // 
                 ;{124,32,16,32,124}, // 
                 ;{0,124,16,124,0}, // 
                 ;{0,56,68,56,0}, // 
                 ;{0,124,64,124,0}, // 
                 ;{0,124,80,112,0}, // 
                 ;{0,56,68,68,0}, // 
                 ;{64,64,124,64,64}, // 
                 ;{0,116,20,124,0}, // 
                 ;{112,80,124,80,112}, // 
                 ;{0,108,16,108,0}, // 
                 ;{0,124,4,124,2}, // 
                 ;{0,112,16,124,0}, // 
                 ;{124,4,124,4,124}, // 
                 ;{124,4,124,4,126}, // 
                 ;{64,124,20,8,0}, // 
                 ;{124,20,8,124,0}, // 
                 ;{0,124,20,8,0}, // 
                 ;{0,84,84,56,0}, //  
                 ;{124,16,124,68,124}, // 
                 ;{4,40,80,124,0} //  223
                 ;
                 ;};
                 ;#include "fon.c"
                 ;flash unsigned char m[][ALL]=
                 ;{
                 ;{0,255,255,219,219,219,223,223,0,0,0,0,255,255,192,96,48,24,48,96,192,255,255,0,0,0,192,192,192,192,255,255,192,192,192,192,0,0,0,0,
                 ;0,255,255,219,219,219,223,223,0,0,0,0,255,255,192,96,48,24,48,96,192,255,255,0,0,0,192,192,192,192,255,255,192,192,192,192,0,0,0,0},  //   0
                 ;
                 ;{0,0,0,0,0,0,0,24,36,66,129,129,129,189,149,137,129,189,161,145,161,189,129,161,189,161,129,129,129,129,66,36,24,0,0,0,0,0,0,0,
                 ;0,0,0,0,0,0,0,24,36,66,129,129,129,189,149,137,129,189,161,145,161,189,129,161,189,161,129,129,129,129,66,36,24,0,0,0,0,0,0,0}, //   1
                 ;{0,0,0,0,0,8,20,20,20,34,34,34,34,34,34,34,34,34,34,34,99,65,65,65,65,65
                 ;,65,65,65,65,65,65,193,129,129,129,129,129,129,129,129,129,129,129,
                 ;129,129,193,65,65,65,65,65,65,65,65,65,65,65,99,34,34,34,34,34,34,34,34,34,34,34,20,20,20,8,0,0,0,0,0,0}, // 
                 ;{0,0,0,0,0,56,68,130,65,33,65,130,68,56,0,0,0,0,0,0,
                 ;0,0,0,0,0,56,68,130,71,39,71,130,68,56,0,0,0,0,0,0,
                 ;0,0,0,0,0,56,68,134,79,47,79,158,92,56,0,0,0,0,0,0,
                 ;0,0,0,0,0,56,124,254,127,63,127,254,124,56,0,0,0,0,0,0},  // 3
                 ;{193,131,193,131,193,131,193,131,193,131,193,131,193,131,193,131,193,131,193,131,193,131,193,131,193,131,193,131,193,131,193,131,
                 ;193,131,193,131,193,131,193,131,193,131,193,131,193,131,193,131,193,131,193,131,193,131,193,131,193,131,193,131,193,131,193,131,
                 ;193,131,193,131,193,131,193,131,193,131,193,131,193,131,193,131}, //  2   4
                 ;{129,131,129,131,129,131,129,131,129,131,129,131,129,131,129,131,129,131,129,131,129,131,129,131,129,131,129,131,129,131,129,131,
                 ;129,131,129,131,129,131,129,131,129,131,129,131,129,131,129,131,129,131,129,131,129,131,129,131,129,131,129,131,129,131,129,131,
                 ;129,131,129,131,129,131,129,131,129,131,129,131,129,131,129,131}, //      5
                 ; {
                 ;129,130,129,130,129,130,129,130,129,130,129,130,129,130,129,130,129,130,129,130,129,130,129,130,129,130,129,130,129,
                 ;130,129,130,129,130,129,130,129,130,129,130,129,130,129,130,129,130,129,130,129,130,129,130,129,130,129,130,129,130,
                 ;129,130,129,130,129,130,129,130,129,130,129,130,129,130,129,130,129,130,129,130,129,130} ,  //      6
                 ;
                 ;{193,131,131,131,193,131,131,131,193,131,131,131,193,131,131,131,193,131,131,131,193,131,131,131,193,131,131,131
                 ;,193,131,131,131,193,131,131,131,193,131,131,131,193,131,131,131,193,131,131,131,193,131,131,131,193,131,131,131,
                 ;193,131,131,131,193,131,131,131,193,131,131,131,193,131,131,131,193,131,131,131,193,131,131,131} //   7
                 ;};
                 ;
                 ;#include "func.c"
                 ;eeprom  unsigned int OCRA,OCRB;
                 ;volatile unsigned int RC5_DATA=0,counter=300;
                 
                 	.DSEG
                 ;signed int temper=0;
                 ;volatile bit TOOGLE=0, RC_FLAG=0;
                 ;volatile unsigned char step=0, step2=0;
                 ;volatile unsigned char buf[ALL]={NULL},buf2[ALL]={NULL},buffer[ALL]={NULL},digbuf[12]={NULL},i;
                 ;flash unsigned char *month[]={
                 ;"","","","","","","","","","","","" };
                 ;flash unsigned char *week[]=
                 ;{"","","","","","",""};
                 ;typedef struct{
                 ;    unsigned char sec;
                 ;    unsigned char min;
                 ;    unsigned char hour;
                 ;    unsigned char dow;
                 ;    unsigned char date;
                 ;    unsigned char month;
                 ;    unsigned char year;
                 ;}time; time t;
                 ;void startup();
                 ;void send_num(unsigned char p,unsigned char sym);
                 ;void put_char(unsigned char *s, unsigned char d) ;
                 ;void fillnil(unsigned char *b);
                 ;void test();
                 ;void background(unsigned char bg);
                 ;void _delay_us(unsigned int us);
                 ;void gettime();
                 ; void gettime()
                 ; 0000 0023  {
                 
                 	.CSEG
                 _gettime:
                 ;
                 ;  rtc_get_time(&t.hour,&t.min,&t.sec);
                +
000361 e1e2     +LDI R30 , LOW ( _t + ( 2 ) )
000362 e0f4     +LDI R31 , HIGH ( _t + ( 2 ) )
                 	__POINTW1MN _t,2
000363 93fa      	ST   -Y,R31
000364 93ea      	ST   -Y,R30
                +
000365 e1e1     +LDI R30 , LOW ( _t + ( 1 ) )
000366 e0f4     +LDI R31 , HIGH ( _t + ( 1 ) )
                 	__POINTW1MN _t,1
000367 93fa      	ST   -Y,R31
000368 93ea      	ST   -Y,R30
000369 e1e0      	LDI  R30,LOW(_t)
00036a e0f4      	LDI  R31,HIGH(_t)
00036b 93fa      	ST   -Y,R31
00036c 93ea      	ST   -Y,R30
00036d d6cc      	RCALL _rtc_get_time
                 ;  rtc_get_date(&t.dow,&t.date,&t.month,&t.year);
                +
00036e e1e3     +LDI R30 , LOW ( _t + ( 3 ) )
00036f e0f4     +LDI R31 , HIGH ( _t + ( 3 ) )
                 	__POINTW1MN _t,3
000370 93fa      	ST   -Y,R31
000371 93ea      	ST   -Y,R30
                +
000372 e1e4     +LDI R30 , LOW ( _t + ( 4 ) )
000373 e0f4     +LDI R31 , HIGH ( _t + ( 4 ) )
                 	__POINTW1MN _t,4
000374 93fa      	ST   -Y,R31
000375 93ea      	ST   -Y,R30
                +
000376 e1e5     +LDI R30 , LOW ( _t + ( 5 ) )
000377 e0f4     +LDI R31 , HIGH ( _t + ( 5 ) )
                 	__POINTW1MN _t,5
000378 93fa      	ST   -Y,R31
000379 93ea      	ST   -Y,R30
                +
00037a e1e6     +LDI R30 , LOW ( _t + ( 6 ) )
00037b e0f4     +LDI R31 , HIGH ( _t + ( 6 ) )
                 	__POINTW1MN _t,6
00037c 93fa      	ST   -Y,R31
00037d 93ea      	ST   -Y,R30
00037e d6e1      	RCALL _rtc_get_date
                 ;
                 ;
                 ; }
00037f 9508      	RET
                 ;
                 ;void startup()
                 ;{
                 _startup:
                 ;// Declare your local variables here
                 ;
                 ;// Input/Output Ports initialization
                 ;// Port B initialization
                 ;// Func7=Out Func6=Out Func5=Out Func4=Out Func3=Out Func2=Out Func1=Out Func0=Out
                 ;// State7=0 State6=0 State5=0 State4=0 State3=0 State2=0 State1=0 State0=0
                 ;PORTB=0x00;
000380 e0e0      	LDI  R30,LOW(0)
000381 bbe8      	OUT  0x18,R30
                 ;DDRB=0xFF;
000382 efef      	LDI  R30,LOW(255)
000383 bbe7      	OUT  0x17,R30
                 ;
                 ;// Port C initialization
                 ;// Func6=In Func5=In Func4=In Func3=In Func2=In Func1=Out Func0=Out
                 ;// State6=T State5=T State4=T State3=T State2=T State1=0 State0=0
                 ;PORTC=0x00;
000384 e0e0      	LDI  R30,LOW(0)
000385 bbe5      	OUT  0x15,R30
                 ;DDRC=0xFF;
000386 efef      	LDI  R30,LOW(255)
000387 bbe4      	OUT  0x14,R30
                 ;
                 ;// Port D initialization
                 ;// Func7=Out Func6=Out Func5=Out Func4=Out Func3=Out Func2=Out Func1=Out Func0=Out
                 ;// State7=0 State6=0 State5=0 State4=0 State3=0 State2=0 State1=0 State0=0
                 ;PORTD=0x04;
000388 e0e4      	LDI  R30,LOW(4)
000389 bbe2      	OUT  0x12,R30
                 ;DDRD=0xFB;
00038a efeb      	LDI  R30,LOW(251)
00038b bbe1      	OUT  0x11,R30
                 ;
                 ;// Timer/Counter 0 initialization
                 ;// Clock source: System Clock
                 ;// Clock value: Timer 0 Stopped
                 ;TCCR0=0x00;
00038c e0e0      	LDI  R30,LOW(0)
00038d bfe3      	OUT  0x33,R30
                 ;TCNT0=0x00;
00038e bfe2      	OUT  0x32,R30
                 ;
                 ;// Timer/Counter 1 initialization
                 ;// Clock source: System Clock
                 ;// Clock value: Timer1 Stopped
                 ;// Mode: Normal top=0xFFFF
                 ;// OC1A output: Discon.
                 ;// OC1B output: Discon.
                 ;// Noise Canceler: Off
                 ;// Input Capture on Falling Edge
                 ;// Timer1 Overflow Interrupt: Off
                 ;// Input Capture Interrupt: Off
                 ;// Compare A Match Interrupt: Off
                 ;// Compare B Match Interrupt: Off
                 ;TCCR1A=0x00;
00038f bdef      	OUT  0x2F,R30
                 ;TCCR1B=0x0A;
000390 e0ea      	LDI  R30,LOW(10)
000391 bdee      	OUT  0x2E,R30
                 ;TCNT1H=0x00;
000392 e0e0      	LDI  R30,LOW(0)
000393 bded      	OUT  0x2D,R30
                 ;TCNT1L=0x00;
000394 bdec      	OUT  0x2C,R30
                 ;ICR1H=0x00;
000395 bde7      	OUT  0x27,R30
                 ;ICR1L=0x00;
000396 bde6      	OUT  0x26,R30
                 ;if  (OCRA<50 || OCRA >510) OCRA=250;
000397 e0a0      	LDI  R26,LOW(_OCRA)
000398 e0b0      	LDI  R27,HIGH(_OCRA)
000399 d907      	RCALL __EEPROMRDW
00039a 97f2      	SBIW R30,50
00039b f038      	BRLO _0x7
00039c e0a0      	LDI  R26,LOW(_OCRA)
00039d e0b0      	LDI  R27,HIGH(_OCRA)
00039e d902      	RCALL __EEPROMRDW
00039f 3fef      	CPI  R30,LOW(0x1FF)
0003a0 e0a1      	LDI  R26,HIGH(0x1FF)
0003a1 07fa      	CPC  R31,R26
0003a2 f028      	BRLO _0x6
                 _0x7:
0003a3 e0a0      	LDI  R26,LOW(_OCRA)
0003a4 e0b0      	LDI  R27,HIGH(_OCRA)
0003a5 efea      	LDI  R30,LOW(250)
0003a6 e0f0      	LDI  R31,HIGH(250)
0003a7 d909      	RCALL __EEPROMWRW
                 ;
                 ;OCR1A=OCRA;
                 _0x6:
0003a8 e0a0      	LDI  R26,LOW(_OCRA)
0003a9 e0b0      	LDI  R27,HIGH(_OCRA)
0003aa d8f6      	RCALL __EEPROMRDW
0003ab bdfb      	OUT  0x2A+1,R31
0003ac bdea      	OUT  0x2A,R30
                 ;OCR1B=OCRB;
0003ad e0a2      	LDI  R26,LOW(_OCRB)
0003ae e0b0      	LDI  R27,HIGH(_OCRB)
0003af d8f1      	RCALL __EEPROMRDW
0003b0 bdf9      	OUT  0x28+1,R31
0003b1 bde8      	OUT  0x28,R30
                 ;OCR1BH=0x00;
0003b2 e0e0      	LDI  R30,LOW(0)
0003b3 bde9      	OUT  0x29,R30
                 ;OCR1BL=0x00;
0003b4 bde8      	OUT  0x28,R30
                 ;
                 ;// Timer/Counter 2 initialization
                 ;// Clock source: System Clock
                 ;// Clock value: 125,000 kHz
                 ;// Mode: CTC top=OCR2
                 ;// OC2 output: Disconnected
                 ;ASSR=0x00;
0003b5 bde2      	OUT  0x22,R30
                 ;TCCR2=0x0B;
0003b6 e0eb      	LDI  R30,LOW(11)
0003b7 bde5      	OUT  0x25,R30
                 ;TCNT2=0x00;
0003b8 e0e0      	LDI  R30,LOW(0)
0003b9 bde4      	OUT  0x24,R30
                 ;if  (OCRB<10 || OCRB >254) OCRB=47;
0003ba e0a2      	LDI  R26,LOW(_OCRB)
0003bb e0b0      	LDI  R27,HIGH(_OCRB)
0003bc d8e4      	RCALL __EEPROMRDW
0003bd 973a      	SBIW R30,10
0003be f038      	BRLO _0xA
0003bf e0a2      	LDI  R26,LOW(_OCRB)
0003c0 e0b0      	LDI  R27,HIGH(_OCRB)
0003c1 d8df      	RCALL __EEPROMRDW
0003c2 3fef      	CPI  R30,LOW(0xFF)
0003c3 e0a0      	LDI  R26,HIGH(0xFF)
0003c4 07fa      	CPC  R31,R26
0003c5 f028      	BRLO _0x9
                 _0xA:
0003c6 e0a2      	LDI  R26,LOW(_OCRB)
0003c7 e0b0      	LDI  R27,HIGH(_OCRB)
0003c8 e2ef      	LDI  R30,LOW(47)
0003c9 e0f0      	LDI  R31,HIGH(47)
0003ca d8e6      	RCALL __EEPROMWRW
                 ;OCR2=OCRB;
                 _0x9:
0003cb e0a2      	LDI  R26,LOW(_OCRB)
0003cc e0b0      	LDI  R27,HIGH(_OCRB)
0003cd d8d7      	RCALL __EEPROMRDB
0003ce bde3      	OUT  0x23,R30
                 ;// External Interrupt(s) initialization
                 ;// INT0: Off
                 ;// INT1: Off
                 ;GICR|=0x40;
0003cf b7eb      	IN   R30,0x3B
0003d0 64e0      	ORI  R30,0x40
0003d1 bfeb      	OUT  0x3B,R30
                 ;MCUCR=0x02;
0003d2 e0e2      	LDI  R30,LOW(2)
0003d3 bfe5      	OUT  0x35,R30
                 ;GIFR=0x40;
0003d4 e4e0      	LDI  R30,LOW(64)
0003d5 bfea      	OUT  0x3A,R30
                 ;// Timer(s)/Counter(s) Interrupt(s) initialization
                 ;TIMSK=0x90;
0003d6 e9e0      	LDI  R30,LOW(144)
0003d7 bfe9      	OUT  0x39,R30
                 ;// USART initialization
                 ;// USART disabled
                 ;UCSRB=0x00;
0003d8 e0e0      	LDI  R30,LOW(0)
0003d9 b9ea      	OUT  0xA,R30
                 ;
                 ;// Analog Comparator initialization
                 ;// Analog Comparator: Off
                 ;// Analog Comparator Input Capture by Timer/Counter 1: Off
                 ;ACSR=0x80;
0003da e8e0      	LDI  R30,LOW(128)
0003db b9e8      	OUT  0x8,R30
                 ;SFIOR=0x00;
0003dc e0e0      	LDI  R30,LOW(0)
0003dd bfe0      	OUT  0x30,R30
                 ;
                 ;// ADC initialization
                 ;// ADC disabled
                 ;ADCSRA=0x00;
0003de b9e6      	OUT  0x6,R30
                 ;
                 ;// SPI initialization
                 ;// SPI disabled
                 ;SPCR=0x00;
0003df b9ed      	OUT  0xD,R30
                 ;
                 ;// TWI initialization
                 ;// TWI disabled
                 ;TWCR=0x00;
0003e0 bfe6      	OUT  0x36,R30
                 ;
                 ;  i2c_init();
0003e1 d6b8      	RCALL _i2c_init
                 ;rtc_init(0,1,0);
0003e2 e0e0      	LDI  R30,LOW(0)
0003e3 93ea      	ST   -Y,R30
0003e4 e0e1      	LDI  R30,LOW(1)
0003e5 93ea      	ST   -Y,R30
0003e6 e0e0      	LDI  R30,LOW(0)
0003e7 93ea      	ST   -Y,R30
0003e8 d635      	RCALL _rtc_init
                 ; //rtc_set_time(18,50,0);
                 ; //rtc_set_date(3,20,5,15);
                 ;
                 ;
                 ;     w1_init();
0003e9 d70e      	RCALL _w1_init
                 ;
                 ;
                 ;ds18b20_init(0,-30,60,DS18B20_10BIT_RES);
0003ea e0e0      	LDI  R30,LOW(0)
0003eb e0f0      	LDI  R31,HIGH(0)
0003ec 93fa      	ST   -Y,R31
0003ed 93ea      	ST   -Y,R30
0003ee eee2      	LDI  R30,LOW(226)
0003ef 93ea      	ST   -Y,R30
0003f0 e3ec      	LDI  R30,LOW(60)
0003f1 93ea      	ST   -Y,R30
0003f2 e0e1      	LDI  R30,LOW(1)
0003f3 93ea      	ST   -Y,R30
0003f4 d5e0      	RCALL _ds18b20_init
                 ;ds18b20_temperature(0);
0003f5 e0e0      	LDI  R30,LOW(0)
0003f6 e0f0      	LDI  R31,HIGH(0)
0003f7 93fa      	ST   -Y,R31
0003f8 93ea      	ST   -Y,R30
0003f9 d584      	RCALL _ds18b20_temperature
                 ;
                 ;
                 ;
                 ;}
0003fa 9508      	RET
                 ;  void _delay_us(unsigned int us)
                 ;  {
                 __delay_us:
                 ;  while(--us) delay_us(1);
                 ;	us -> Y+0
                 _0xC:
0003fb 81e8      	LD   R30,Y
0003fc 81f9      	LDD  R31,Y+1
0003fd 9731      	SBIW R30,1
0003fe 83e8      	ST   Y,R30
0003ff 83f9      	STD  Y+1,R31
000400 f021      	BREQ _0xE
                +
000401 e081     +LDI R24 , LOW ( 1 )
                +__DELAY_USB_LOOP :
000402 958a     +DEC R24
000403 f7f1     +BRNE __DELAY_USB_LOOP
                 	__DELAY_USB 1
000404 cff6      	RJMP _0xC
                 _0xE:
000405 c102      	RJMP _0x20E0004
                 ;  /*
                 ;unsigned char rev (unsigned char source)
                 ;{
                 ;return         ((source & 128)>> 7)
                 ;            |  ((source & 64) >> 5)
                 ;            |  ((source & 32) >> 3)
                 ;            |  ((source & 16) >> 1)
                 ;            |  ((source & 8)  << 1)
                 ;            |  ((source & 4)  << 3)
                 ;            |  ((source & 2)  << 5)
                 ;            |  ((source & 1)  << 7);
                 ;}
                 ;   */
                 ;void send_num(unsigned char p,unsigned char sym)
                 ;{
                 _send_num:
                 ;unsigned char i;
                 ; if(sym>223) sym-=32;
000406 931a      	ST   -Y,R17
                 ;	p -> Y+2
                 ;	sym -> Y+1
                 ;	i -> R17
000407 81a9      	LDD  R26,Y+1
000408 3ea0      	CPI  R26,LOW(0xE0)
000409 f020      	BRLO _0xF
00040a 81e9      	LDD  R30,Y+1
00040b e0f0      	LDI  R31,0
00040c 97b0      	SBIW R30,32
00040d 83e9      	STD  Y+1,R30
                 ;
                 ;
                 ;
                 ; if (sym>96 && sym<127) sym-=32; else
                 _0xF:
00040e 81a9      	LDD  R26,Y+1
00040f 36a1      	CPI  R26,LOW(0x61)
000410 f010      	BRLO _0x11
000411 37af      	CPI  R26,LOW(0x7F)
000412 f008      	BRLO _0x12
                 _0x11:
000413 c004      	RJMP _0x10
                 _0x12:
000414 81e9      	LDD  R30,Y+1
000415 e0f0      	LDI  R31,0
000416 97b0      	SBIW R30,32
000417 c007      	RJMP _0x91
                 _0x10:
                 ; if (sym>96) sym-=95;
000418 81a9      	LDD  R26,Y+1
000419 36a1      	CPI  R26,LOW(0x61)
00041a f028      	BRLO _0x14
00041b 81e9      	LDD  R30,Y+1
00041c e0f0      	LDI  R31,0
00041d 55ef      	SUBI R30,LOW(95)
00041e 40f0      	SBCI R31,HIGH(95)
                 _0x91:
00041f 83e9      	STD  Y+1,R30
                 ;// if (sym>127) sym-=64;
                 ;for(i=0; i<5; i++)
                 _0x14:
000420 e010      	LDI  R17,LOW(0)
                 _0x16:
000421 3015      	CPI  R17,5
000422 f518      	BRSH _0x17
                 ;{
                 ;//buf[ (p*5) +i ]=rev(num[sym-32][i]);
                 ;buf[ (p*5) +i ]=num[sym-32][i];
000423 81aa      	LDD  R26,Y+2
000424 e0e5      	LDI  R30,LOW(5)
000425 9fea      	MUL  R30,R26
000426 01f0      	MOVW R30,R0
000427 01df      	MOVW R26,R30
000428 2fe1      	MOV  R30,R17
000429 e0f0      	LDI  R31,0
00042a 0fea      	ADD  R30,R26
00042b 1ffb      	ADC  R31,R27
00042c 51e3      	SUBI R30,LOW(-_buf)
00042d 4ffd      	SBCI R31,HIGH(-_buf)
00042e 01bf      	MOVW R22,R30
00042f 81e9      	LDD  R30,Y+1
000430 e0f0      	LDI  R31,0
000431 97b0      	SBIW R30,32
000432 e0a5      	LDI  R26,LOW(5)
000433 e0b0      	LDI  R27,HIGH(5)
000434 d82e      	RCALL __MULW12U
000435 5dea      	SUBI R30,LOW(-_num*2)
000436 4fff      	SBCI R31,HIGH(-_num*2)
000437 01df      	MOVW R26,R30
000438 2fe1      	MOV  R30,R17
000439 e0f0      	LDI  R31,0
00043a 0fea      	ADD  R30,R26
00043b 1ffb      	ADC  R31,R27
00043c 91e4      	LPM  R30,Z
00043d 01db      	MOVW R26,R22
00043e 93ec      	ST   X,R30
                 ;delay_ms(1);
00043f e0e1      	LDI  R30,LOW(1)
000440 e0f0      	LDI  R31,HIGH(1)
000441 93fa      	ST   -Y,R31
000442 93ea      	ST   -Y,R30
000443 d6a8      	RCALL _delay_ms
                 ;}
000444 5f1f      	SUBI R17,-1
000445 cfdb      	RJMP _0x16
                 _0x17:
                 ;}
000446 8118      	LDD  R17,Y+0
000447 c5f0      	RJMP _0x20E0002
                 ;
                 ;void put_char(unsigned char *s, unsigned char d)
                 ;{
                 _put_char:
                 ;unsigned char i = 0;
                 ;
                 ;
                 ;fillnil(buf);
000448 931a      	ST   -Y,R17
                 ;	*s -> Y+2
                 ;	d -> Y+1
                 ;	i -> R17
000449 e010      	LDI  R17,0
00044a eeed      	LDI  R30,LOW(_buf)
00044b e0f2      	LDI  R31,HIGH(_buf)
00044c 93fa      	ST   -Y,R31
00044d 93ea      	ST   -Y,R30
00044e d01e      	RCALL _fillnil
                 ;
                 ;  while(s[i]) {   send_num(i,s[i++]);   if(d) delay_ms(d); }
                 _0x18:
00044f 81aa      	LDD  R26,Y+2
000450 81bb      	LDD  R27,Y+2+1
000451 27ee      	CLR  R30
000452 0fa1      	ADD  R26,R17
000453 1fbe      	ADC  R27,R30
000454 91ec      	LD   R30,X
000455 30e0      	CPI  R30,0
000456 f099      	BREQ _0x1A
000457 931a      	ST   -Y,R17
000458 2fe1      	MOV  R30,R17
000459 5f1f      	SUBI R17,-1
00045a 81ab      	LDD  R26,Y+3
00045b 81bc      	LDD  R27,Y+3+1
00045c e0f0      	LDI  R31,0
00045d 0fae      	ADD  R26,R30
00045e 1fbf      	ADC  R27,R31
00045f 91ec      	LD   R30,X
000460 93ea      	ST   -Y,R30
000461 dfa4      	RCALL _send_num
000462 81e9      	LDD  R30,Y+1
000463 30e0      	CPI  R30,0
000464 f021      	BREQ _0x1B
000465 e0f0      	LDI  R31,0
000466 93fa      	ST   -Y,R31
000467 93ea      	ST   -Y,R30
000468 d683      	RCALL _delay_ms
                 _0x1B:
000469 cfe5      	RJMP _0x18
                 _0x1A:
                 ;
                 ;}
00046a 8118      	LDD  R17,Y+0
00046b 9624      	ADIW R28,4
00046c 9508      	RET
                 ;void fillnil(unsigned char *b)
                 ;{
                 _fillnil:
                 ;/*
                 ;unsigned char i;
                 ;for(i=0; i<ALL; i++)
                 ;{
                 ;b[i]=0;
                 ;} */
                 ;
                 ;memset(b,0,ALL);
                 ;	*b -> Y+0
00046d 81e8      	LD   R30,Y
00046e 81f9      	LDD  R31,Y+1
00046f 93fa      	ST   -Y,R31
000470 93ea      	ST   -Y,R30
000471 e0e0      	LDI  R30,LOW(0)
000472 93ea      	ST   -Y,R30
000473 e5e0      	LDI  R30,LOW(80)
000474 e0f0      	LDI  R31,HIGH(80)
000475 93fa      	ST   -Y,R31
000476 93ea      	ST   -Y,R30
000477 d418      	RCALL _memset
                 ;
                 ;}
000478 c08f      	RJMP _0x20E0004
                 ;
                 ;void test()
                 ;{
                 _test:
                 ;unsigned char i,l=0;
                 ;      rc=0;
000479 d85b      	RCALL __SAVELOCR2
                 ;	i -> R17
                 ;	l -> R16
00047a e000      	LDI  R16,0
00047b 98ad      	CBI  0x15,5
                 ;      for (i=8; i>0; i--) { R(1<<i); delay_ms(100); }
00047c e018      	LDI  R17,LOW(8)
                 _0x1F:
00047d 3011      	CPI  R17,1
00047e f080      	BRLO _0x20
00047f 2fe1      	MOV  R30,R17
000480 e0a1      	LDI  R26,LOW(1)
000481 d7c6      	RCALL __LSLB12
000482 bbe2      	OUT  0x12,R30
000483 9992      	SBIC 0x12,2
000484 c002      	RJMP _0x21
000485 98ab      	CBI  0x15,3
000486 c001      	RJMP _0x22
                 _0x21:
000487 9aab      	SBI  0x15,3
                 _0x22:
000488 e6e4      	LDI  R30,LOW(100)
000489 e0f0      	LDI  R31,HIGH(100)
00048a 93fa      	ST   -Y,R31
00048b 93ea      	ST   -Y,R30
00048c d65f      	RCALL _delay_ms
00048d 5011      	SUBI R17,1
00048e cfee      	RJMP _0x1F
                 _0x20:
                 ;      R(0);
00048f e0e0      	LDI  R30,LOW(0)
000490 bbe2      	OUT  0x12,R30
000491 9992      	SBIC 0x12,2
000492 c002      	RJMP _0x23
000493 98ab      	CBI  0x15,3
000494 c001      	RJMP _0x24
                 _0x23:
000495 9aab      	SBI  0x15,3
                 _0x24:
                 ;      delay_ms(50);
000496 e3e2      	LDI  R30,LOW(50)
000497 e0f0      	LDI  R31,HIGH(50)
000498 93fa      	ST   -Y,R31
000499 93ea      	ST   -Y,R30
00049a d651      	RCALL _delay_ms
                 ;      for (i=0; i<8; i++) {l= l | 1<<i; R(l); delay_ms(100); }
00049b e010      	LDI  R17,LOW(0)
                 _0x26:
00049c 3018      	CPI  R17,8
00049d f488      	BRSH _0x27
00049e 2fe1      	MOV  R30,R17
00049f e0a1      	LDI  R26,LOW(1)
0004a0 d7a7      	RCALL __LSLB12
0004a1 2b0e      	OR   R16,R30
0004a2 bb02      	OUT  0x12,R16
0004a3 9992      	SBIC 0x12,2
0004a4 c002      	RJMP _0x28
0004a5 98ab      	CBI  0x15,3
0004a6 c001      	RJMP _0x29
                 _0x28:
0004a7 9aab      	SBI  0x15,3
                 _0x29:
0004a8 e6e4      	LDI  R30,LOW(100)
0004a9 e0f0      	LDI  R31,HIGH(100)
0004aa 93fa      	ST   -Y,R31
0004ab 93ea      	ST   -Y,R30
0004ac d63f      	RCALL _delay_ms
0004ad 5f1f      	SUBI R17,-1
0004ae cfed      	RJMP _0x26
                 _0x27:
                 ;      delay_ms(1000);
0004af eee8      	LDI  R30,LOW(1000)
0004b0 e0f3      	LDI  R31,HIGH(1000)
0004b1 93fa      	ST   -Y,R31
0004b2 93ea      	ST   -Y,R30
0004b3 d638      	RCALL _delay_ms
                 ;
                 ;       bc=0;
0004b4 98ac      	CBI  0x15,4
                 ;        for (i=8; i>0; i--) {B = (1<<i); delay_ms(100); }
0004b5 e018      	LDI  R17,LOW(8)
                 _0x2D:
0004b6 3011      	CPI  R17,1
0004b7 f058      	BRLO _0x2E
0004b8 2fe1      	MOV  R30,R17
0004b9 e0a1      	LDI  R26,LOW(1)
0004ba d78d      	RCALL __LSLB12
0004bb bbe8      	OUT  0x18,R30
0004bc e6e4      	LDI  R30,LOW(100)
0004bd e0f0      	LDI  R31,HIGH(100)
0004be 93fa      	ST   -Y,R31
0004bf 93ea      	ST   -Y,R30
0004c0 d62b      	RCALL _delay_ms
0004c1 5011      	SUBI R17,1
0004c2 cff3      	RJMP _0x2D
                 _0x2E:
                 ;      B=0;
0004c3 e0e0      	LDI  R30,LOW(0)
0004c4 bbe8      	OUT  0x18,R30
                 ;      delay_ms(50);
0004c5 e3e2      	LDI  R30,LOW(50)
0004c6 e0f0      	LDI  R31,HIGH(50)
0004c7 93fa      	ST   -Y,R31
0004c8 93ea      	ST   -Y,R30
0004c9 d622      	RCALL _delay_ms
                 ;      for (i=0; i<8; i++) {B = B | (1<<i); delay_ms(100); }
0004ca e010      	LDI  R17,LOW(0)
                 _0x30:
0004cb 3018      	CPI  R17,8
0004cc f468      	BRSH _0x31
0004cd b218      	IN   R1,24
0004ce 2fe1      	MOV  R30,R17
0004cf e0a1      	LDI  R26,LOW(1)
0004d0 d777      	RCALL __LSLB12
0004d1 29e1      	OR   R30,R1
0004d2 bbe8      	OUT  0x18,R30
0004d3 e6e4      	LDI  R30,LOW(100)
0004d4 e0f0      	LDI  R31,HIGH(100)
0004d5 93fa      	ST   -Y,R31
0004d6 93ea      	ST   -Y,R30
0004d7 d614      	RCALL _delay_ms
0004d8 5f1f      	SUBI R17,-1
0004d9 cff1      	RJMP _0x30
                 _0x31:
                 ;      delay_ms(1000);
0004da eee8      	LDI  R30,LOW(1000)
0004db e0f3      	LDI  R31,HIGH(1000)
0004dc 93fa      	ST   -Y,R31
0004dd 93ea      	ST   -Y,R30
0004de d60d      	RCALL _delay_ms
                 ;}
0004df d7fd      	RCALL __LOADLOCR2P
0004e0 9508      	RET
                 ;void delay_s(unsigned char s)
                 ;{
                 _delay_s:
                 ;while(s--) delay_ms(1000);
                 ;	s -> Y+0
                 _0x32:
0004e1 81e8      	LD   R30,Y
0004e2 50e1      	SUBI R30,LOW(1)
0004e3 83e8      	ST   Y,R30
0004e4 5fef      	SUBI R30,-LOW(1)
0004e5 f031      	BREQ _0x34
0004e6 eee8      	LDI  R30,LOW(1000)
0004e7 e0f3      	LDI  R31,HIGH(1000)
0004e8 93fa      	ST   -Y,R31
0004e9 93ea      	ST   -Y,R30
0004ea d601      	RCALL _delay_ms
0004eb cff5      	RJMP _0x32
                 _0x34:
0004ec 9621      	ADIW R28,1
0004ed 9508      	RET
                 ;
                 ;void background(unsigned char bg)
                 ;{
                 _background:
                 ;unsigned char i;
                 ;for(i=0; i<ALL; i++) buf2[i]=m[bg][i];
0004ee 931a      	ST   -Y,R17
                 ;	bg -> Y+1
                 ;	i -> R17
0004ef e010      	LDI  R17,LOW(0)
                 _0x36:
0004f0 3510      	CPI  R17,80
0004f1 f4a8      	BRSH _0x37
0004f2 2fe1      	MOV  R30,R17
0004f3 e0f0      	LDI  R31,0
0004f4 5ce3      	SUBI R30,LOW(-_buf2)
0004f5 4ffc      	SBCI R31,HIGH(-_buf2)
0004f6 01bf      	MOVW R22,R30
0004f7 81e9      	LDD  R30,Y+1
0004f8 e5a0      	LDI  R26,LOW(80)
0004f9 9fea      	MUL  R30,R26
0004fa 01f0      	MOVW R30,R0
0004fb 5fe4      	SUBI R30,LOW(-_m*2)
0004fc 4ffd      	SBCI R31,HIGH(-_m*2)
0004fd 01df      	MOVW R26,R30
0004fe 2fe1      	MOV  R30,R17
0004ff e0f0      	LDI  R31,0
000500 0fea      	ADD  R30,R26
000501 1ffb      	ADC  R31,R27
000502 91e4      	LPM  R30,Z
000503 01db      	MOVW R26,R22
000504 93ec      	ST   X,R30
000505 5f1f      	SUBI R17,-1
000506 cfe9      	RJMP _0x36
                 _0x37:
000507 8118      	LDD  R17,Y+0
                 _0x20E0004:
000508 9622      	ADIW R28,2
000509 9508      	RET
                 ;
                 ;void writeocr()
                 ;{
                 _writeocr:
                 ;if(OCR1A!=OCRA ) OCRA=OCR1A;
                +
00050a b40a     +IN R0 , 42
00050b b41b     +IN R1 , 42 + 1
                 	__INWR 0,1,42
00050c e0a0      	LDI  R26,LOW(_OCRA)
00050d e0b0      	LDI  R27,HIGH(_OCRA)
00050e d792      	RCALL __EEPROMRDW
00050f 15e0      	CP   R30,R0
000510 05f1      	CPC  R31,R1
000511 f029      	BREQ _0x38
000512 b5ea      	IN   R30,0x2A
000513 b5fb      	IN   R31,0x2A+1
000514 e0a0      	LDI  R26,LOW(_OCRA)
000515 e0b0      	LDI  R27,HIGH(_OCRA)
000516 d79a      	RCALL __EEPROMWRW
                 ;if(OCR2!=OCRB) OCRB=OCR2;
                 _0x38:
000517 b403      	IN   R0,35
000518 e0a2      	LDI  R26,LOW(_OCRB)
000519 e0b0      	LDI  R27,HIGH(_OCRB)
00051a d786      	RCALL __EEPROMRDW
00051b 2da0      	MOV  R26,R0
00051c e0b0      	LDI  R27,0
00051d 17ea      	CP   R30,R26
00051e 07fb      	CPC  R31,R27
00051f f029      	BREQ _0x39
000520 b5e3      	IN   R30,0x23
000521 e0a2      	LDI  R26,LOW(_OCRB)
000522 e0b0      	LDI  R27,HIGH(_OCRB)
000523 e0f0      	LDI  R31,0
000524 d78c      	RCALL __EEPROMWRW
                 ; }
                 _0x39:
000525 9508      	RET
                 ;    interrupt [EXT_INT0] void ext_int0_isr(void)
                 ; 0000 0025 {
                 _ext_int0_isr:
000526 920a      	ST   -Y,R0
000527 921a      	ST   -Y,R1
000528 92fa      	ST   -Y,R15
000529 936a      	ST   -Y,R22
00052a 937a      	ST   -Y,R23
00052b 938a      	ST   -Y,R24
00052c 939a      	ST   -Y,R25
00052d 93aa      	ST   -Y,R26
00052e 93ba      	ST   -Y,R27
00052f 93ea      	ST   -Y,R30
000530 93fa      	ST   -Y,R31
000531 b7ef      	IN   R30,SREG
000532 93ea      	ST   -Y,R30
                 ; 0000 0026 
                 ; 0000 0027 if(PD2) return;
000533 9b82      	SBIS 0x10,2
000534 c00e      	RJMP _0x3A
000535 91e9      	LD   R30,Y+
000536 bfef      	OUT  SREG,R30
000537 91f9      	LD   R31,Y+
000538 91e9      	LD   R30,Y+
000539 91b9      	LD   R27,Y+
00053a 91a9      	LD   R26,Y+
00053b 9199      	LD   R25,Y+
00053c 9189      	LD   R24,Y+
00053d 9179      	LD   R23,Y+
00053e 9169      	LD   R22,Y+
00053f 90f9      	LD   R15,Y+
000540 9019      	LD   R1,Y+
000541 9009      	LD   R0,Y+
000542 9518      	RETI
                 ; 0000 0028 delay_us(10);
                 _0x3A:
                +
000543 e08d     +LDI R24 , LOW ( 13 )
                +__DELAY_USB_LOOP :
000544 958a     +DEC R24
000545 f7f1     +BRNE __DELAY_USB_LOOP
                 	__DELAY_USB 13
                 ; 0000 0029 if(PD2) return;
000546 9b82      	SBIS 0x10,2
000547 c00e      	RJMP _0x3B
000548 91e9      	LD   R30,Y+
000549 bfef      	OUT  SREG,R30
00054a 91f9      	LD   R31,Y+
00054b 91e9      	LD   R30,Y+
00054c 91b9      	LD   R27,Y+
00054d 91a9      	LD   R26,Y+
00054e 9199      	LD   R25,Y+
00054f 9189      	LD   R24,Y+
000550 9179      	LD   R23,Y+
000551 9169      	LD   R22,Y+
000552 90f9      	LD   R15,Y+
000553 9019      	LD   R1,Y+
000554 9009      	LD   R0,Y+
000555 9518      	RETI
                 ; 0000 002A GICR&=~0x40;
                 _0x3B:
000556 b7eb      	IN   R30,0x3B
000557 7bef      	ANDI R30,0xBF
000558 bfeb      	OUT  0x3B,R30
                 ; 0000 002B //if(!RC_FLAG) {GIFR |= (1 << INTF0); GICR|=0x40;  return;}
                 ; 0000 002C     delay_us(120);
                +
000559 ea80     +LDI R24 , LOW ( 160 )
                +__DELAY_USB_LOOP :
00055a 958a     +DEC R24
00055b f7f1     +BRNE __DELAY_USB_LOOP
                 	__DELAY_USB 160
                 ; 0000 002D  RC5_DATA=0;
00055c e0e0      	LDI  R30,LOW(0)
00055d 93e0 02e7 	STS  _RC5_DATA,R30
00055f 93e0 02e8 	STS  _RC5_DATA+1,R30
                 ; 0000 002E  for(i = 0; i < 13; i++) {
000561 93e0 03e9 	STS  _i,R30
                 _0x3D:
000563 91a0 03e9 	LDS  R26,_i
000565 30ad      	CPI  R26,LOW(0xD)
000566 f540      	BRSH _0x3E
                 ; 0000 002F        RC5_DATA <<= 1;
000567 91e0 02e7 	LDS  R30,_RC5_DATA
000569 91f0 02e8 	LDS  R31,_RC5_DATA+1
00056b 0fee      	LSL  R30
00056c 1fff      	ROL  R31
00056d 93e0 02e7 	STS  _RC5_DATA,R30
00056f 93f0 02e8 	STS  _RC5_DATA+1,R31
                 ; 0000 0030     _delay_us( 438);
000571 ebe6      	LDI  R30,LOW(438)
000572 e0f1      	LDI  R31,HIGH(438)
000573 93fa      	ST   -Y,R31
000574 93ea      	ST   -Y,R30
000575 de85      	RCALL __delay_us
                 ; 0000 0031     if(PD2) { delay_us(10);    if(PD2) { delay_us(10);   if(PD2) {  RC5_DATA++;   }} }
000576 9b82      	SBIS 0x10,2
000577 c011      	RJMP _0x3F
                +
000578 e08d     +LDI R24 , LOW ( 13 )
                +__DELAY_USB_LOOP :
000579 958a     +DEC R24
00057a f7f1     +BRNE __DELAY_USB_LOOP
                 	__DELAY_USB 13
00057b 9b82      	SBIS 0x10,2
00057c c00c      	RJMP _0x40
                +
00057d e08d     +LDI R24 , LOW ( 13 )
                +__DELAY_USB_LOOP :
00057e 958a     +DEC R24
00057f f7f1     +BRNE __DELAY_USB_LOOP
                 	__DELAY_USB 13
000580 9b82      	SBIS 0x10,2
000581 c007      	RJMP _0x41
000582 eea7      	LDI  R26,LOW(_RC5_DATA)
000583 e0b2      	LDI  R27,HIGH(_RC5_DATA)
000584 91ed      	LD   R30,X+
000585 91fd      	LD   R31,X+
000586 9631      	ADIW R30,1
000587 93fe      	ST   -X,R31
000588 93ee      	ST   -X,R30
                 _0x41:
                 _0x40:
                 ; 0000 0032 }
                 _0x3F:
000589 91e0 03e9 	LDS  R30,_i
00058b 5fef      	SUBI R30,-LOW(1)
00058c 93e0 03e9 	STS  _i,R30
00058e cfd4      	RJMP _0x3D
                 _0x3E:
                 ; 0000 0033 
                 ; 0000 0034     counter++;
00058f eea9      	LDI  R26,LOW(_counter)
000590 e0b2      	LDI  R27,HIGH(_counter)
000591 91ed      	LD   R30,X+
000592 91fd      	LD   R31,X+
000593 9631      	ADIW R30,1
000594 93fe      	ST   -X,R31
000595 93ee      	ST   -X,R30
                 ; 0000 0035 
                 ; 0000 0036  if((RC5_DATA & 0b1111111111000000) !=0 )
000596 91e0 02e7 	LDS  R30,_RC5_DATA
000598 91f0 02e8 	LDS  R31,_RC5_DATA+1
00059a 7ce0      	ANDI R30,LOW(0xFFC0)
00059b 9730      	SBIW R30,0
00059c f009      	BREQ _0x42
                 ; 0000 0037  { GIFR |= (1 << INTF0); GICR|=0x40;  return; }
00059d c0af      	RJMP _0x94
                 ; 0000 0038 
                 ; 0000 0039  RC_FLAG=1;
                 _0x42:
00059e 9468      	SET
00059f f821      	BLD  R2,1
                 ; 0000 003A 
                 ; 0000 003B  switch(RC5_DATA)
0005a0 91e0 02e7 	LDS  R30,_RC5_DATA
0005a2 91f0 02e8 	LDS  R31,_RC5_DATA+1
                 ; 0000 003C  {
                 ; 0000 003D  case 1:
0005a4 30e1      	CPI  R30,LOW(0x1)
0005a5 e0a0      	LDI  R26,HIGH(0x1)
0005a6 07fa      	CPC  R31,R26
0005a7 f021      	BREQ _0x47
                 ; 0000 003E  case 2:
0005a8 30e2      	CPI  R30,LOW(0x2)
0005a9 e0a0      	LDI  R26,HIGH(0x2)
0005aa 07fa      	CPC  R31,R26
0005ab f409      	BRNE _0x48
                 _0x47:
                 ; 0000 003F   case 3:
0005ac c004      	RJMP _0x49
                 _0x48:
0005ad 30e3      	CPI  R30,LOW(0x3)
0005ae e0a0      	LDI  R26,HIGH(0x3)
0005af 07fa      	CPC  R31,R26
0005b0 f409      	BRNE _0x4A
                 _0x49:
                 ; 0000 0040    case 4:
0005b1 c004      	RJMP _0x4B
                 _0x4A:
0005b2 30e4      	CPI  R30,LOW(0x4)
0005b3 e0a0      	LDI  R26,HIGH(0x4)
0005b4 07fa      	CPC  R31,R26
0005b5 f409      	BRNE _0x4C
                 _0x4B:
                 ; 0000 0041     case 5:
0005b6 c004      	RJMP _0x4D
                 _0x4C:
0005b7 30e5      	CPI  R30,LOW(0x5)
0005b8 e0a0      	LDI  R26,HIGH(0x5)
0005b9 07fa      	CPC  R31,R26
0005ba f409      	BRNE _0x4E
                 _0x4D:
                 ; 0000 0042      case 6:
0005bb c004      	RJMP _0x4F
                 _0x4E:
0005bc 30e6      	CPI  R30,LOW(0x6)
0005bd e0a0      	LDI  R26,HIGH(0x6)
0005be 07fa      	CPC  R31,R26
0005bf f409      	BRNE _0x50
                 _0x4F:
                 ; 0000 0043       case 7:
0005c0 c004      	RJMP _0x51
                 _0x50:
0005c1 30e7      	CPI  R30,LOW(0x7)
0005c2 e0a0      	LDI  R26,HIGH(0x7)
0005c3 07fa      	CPC  R31,R26
0005c4 f409      	BRNE _0x52
                 _0x51:
                 ; 0000 0044       case 8: background(RC5_DATA-1); break;
0005c5 c004      	RJMP _0x53
                 _0x52:
0005c6 30e8      	CPI  R30,LOW(0x8)
0005c7 e0a0      	LDI  R26,HIGH(0x8)
0005c8 07fa      	CPC  R31,R26
0005c9 f441      	BRNE _0x54
                 _0x53:
0005ca 91e0 02e7 	LDS  R30,_RC5_DATA
0005cc 91f0 02e8 	LDS  R31,_RC5_DATA+1
0005ce 9731      	SBIW R30,1
0005cf 93ea      	ST   -Y,R30
0005d0 df1d      	RCALL _background
0005d1 c076      	RJMP _0x45
                 ; 0000 0045       case MINUS: if(OCR1A>50) OCR1A--;  break;
                 _0x54:
0005d2 31e5      	CPI  R30,LOW(0x15)
0005d3 e0a0      	LDI  R26,HIGH(0x15)
0005d4 07fa      	CPC  R31,R26
0005d5 f459      	BRNE _0x55
0005d6 b5ea      	IN   R30,0x2A
0005d7 b5fb      	IN   R31,0x2A+1
0005d8 97f3      	SBIW R30,51
0005d9 f030      	BRLO _0x56
0005da b5ea      	IN   R30,0x2A
0005db b5fb      	IN   R31,0x2A+1
0005dc 9731      	SBIW R30,1
0005dd bdfb      	OUT  0x2A+1,R31
0005de bdea      	OUT  0x2A,R30
0005df 9631      	ADIW R30,1
                 _0x56:
0005e0 c067      	RJMP _0x45
                 ; 0000 0046       case PLUS: if(OCR1A<510) OCR1A++;    break;
                 _0x55:
0005e1 31e6      	CPI  R30,LOW(0x16)
0005e2 e0a0      	LDI  R26,HIGH(0x16)
0005e3 07fa      	CPC  R31,R26
0005e4 f469      	BRNE _0x57
0005e5 b5ea      	IN   R30,0x2A
0005e6 b5fb      	IN   R31,0x2A+1
0005e7 3fee      	CPI  R30,LOW(0x1FE)
0005e8 e0a1      	LDI  R26,HIGH(0x1FE)
0005e9 07fa      	CPC  R31,R26
0005ea f430      	BRSH _0x58
0005eb b5ea      	IN   R30,0x2A
0005ec b5fb      	IN   R31,0x2A+1
0005ed 9631      	ADIW R30,1
0005ee bdfb      	OUT  0x2A+1,R31
0005ef bdea      	OUT  0x2A,R30
0005f0 9731      	SBIW R30,1
                 _0x58:
0005f1 c056      	RJMP _0x45
                 ; 0000 0047       case UP: if(OCR2<250) OCR2++;    break;
                 _0x57:
0005f2 31e0      	CPI  R30,LOW(0x10)
0005f3 e0a0      	LDI  R26,HIGH(0x10)
0005f4 07fa      	CPC  R31,R26
0005f5 f441      	BRNE _0x59
0005f6 b5e3      	IN   R30,0x23
0005f7 3fea      	CPI  R30,LOW(0xFA)
0005f8 f420      	BRSH _0x5A
0005f9 b5e3      	IN   R30,0x23
0005fa 5fef      	SUBI R30,-LOW(1)
0005fb bde3      	OUT  0x23,R30
0005fc 50e1      	SUBI R30,LOW(1)
                 _0x5A:
0005fd c04a      	RJMP _0x45
                 ; 0000 0048       case DOWN:   if(OCR2>20) OCR2--;    break;
                 _0x59:
0005fe 31e1      	CPI  R30,LOW(0x11)
0005ff e0a0      	LDI  R26,HIGH(0x11)
000600 07fa      	CPC  R31,R26
000601 f441      	BRNE _0x5B
000602 b5e3      	IN   R30,0x23
000603 31e5      	CPI  R30,LOW(0x15)
000604 f020      	BRLO _0x5C
000605 b5e3      	IN   R30,0x23
000606 50e1      	SUBI R30,LOW(1)
000607 bde3      	OUT  0x23,R30
000608 5fef      	SUBI R30,-LOW(1)
                 _0x5C:
000609 c03e      	RJMP _0x45
                 ; 0000 0049  case MENU:   break;
                 _0x5B:
00060a 31e2      	CPI  R30,LOW(0x12)
00060b e0a0      	LDI  R26,HIGH(0x12)
00060c 07fa      	CPC  R31,R26
00060d f1d1      	BREQ _0x45
                 ; 0000 004A  case POWER: bc=rc^=1; break;
00060e 30ec      	CPI  R30,LOW(0xC)
00060f e0a0      	LDI  R26,HIGH(0xC)
000610 07fa      	CPC  R31,R26
000611 f479      	BRNE _0x5E
000612 e0a0      	LDI  R26,0
000613 99ad      	SBIC 0x15,5
000614 e0a1      	LDI  R26,1
000615 e0e1      	LDI  R30,LOW(1)
000616 27ea      	EOR  R30,R26
000617 f411      	BRNE _0x5F
000618 98ad      	CBI  0x15,5
000619 c001      	RJMP _0x60
                 _0x5F:
00061a 9aad      	SBI  0x15,5
                 _0x60:
00061b 30e0      	CPI  R30,0
00061c f411      	BRNE _0x61
00061d 98ac      	CBI  0x15,4
00061e c001      	RJMP _0x62
                 _0x61:
00061f 9aac      	SBI  0x15,4
                 _0x62:
000620 c027      	RJMP _0x45
                 ; 0000 004B  case DISPLAY: TOOGLE ^=1; break;
                 _0x5E:
000621 30ef      	CPI  R30,LOW(0xF)
000622 e0a0      	LDI  R26,HIGH(0xF)
000623 07fa      	CPC  R31,R26
000624 f441      	BRNE _0x63
000625 e0a0      	LDI  R26,0
000626 fc20      	SBRC R2,0
000627 e0a1      	LDI  R26,1
000628 e0e1      	LDI  R30,LOW(1)
000629 27ea      	EOR  R30,R26
00062a d6a3      	RCALL __BSTB1
00062b f820      	BLD  R2,0
00062c c01b      	RJMP _0x45
                 ; 0000 004C  case VIDEO: bc^=1; break;
                 _0x63:
00062d 33e8      	CPI  R30,LOW(0x38)
00062e e0a0      	LDI  R26,HIGH(0x38)
00062f 07fa      	CPC  R31,R26
000630 f451      	BRNE _0x64
000631 e0a0      	LDI  R26,0
000632 99ac      	SBIC 0x15,4
000633 e0a1      	LDI  R26,1
000634 e0e1      	LDI  R30,LOW(1)
000635 27ea      	EOR  R30,R26
000636 f411      	BRNE _0x65
000637 98ac      	CBI  0x15,4
000638 c001      	RJMP _0x66
                 _0x65:
000639 9aac      	SBI  0x15,4
                 _0x66:
00063a c00d      	RJMP _0x45
                 ; 0000 004D  case TV: rc^=1;
                 _0x64:
00063b 33ef      	CPI  R30,LOW(0x3F)
00063c e0a0      	LDI  R26,HIGH(0x3F)
00063d 07fa      	CPC  R31,R26
00063e f449      	BRNE _0x45
00063f e0a0      	LDI  R26,0
000640 99ad      	SBIC 0x15,5
000641 e0a1      	LDI  R26,1
000642 e0e1      	LDI  R30,LOW(1)
000643 27ea      	EOR  R30,R26
000644 f411      	BRNE _0x68
000645 98ad      	CBI  0x15,5
000646 c001      	RJMP _0x69
                 _0x68:
000647 9aad      	SBI  0x15,5
                 _0x69:
                 ; 0000 004E  }
                 _0x45:
                 ; 0000 004F 
                 ; 0000 0050 
                 ; 0000 0051  delay_ms(10);
000648 e0ea      	LDI  R30,LOW(10)
000649 e0f0      	LDI  R31,HIGH(10)
00064a 93fa      	ST   -Y,R31
00064b 93ea      	ST   -Y,R30
00064c d49f      	RCALL _delay_ms
                 ; 0000 0052 
                 ; 0000 0053  GIFR |= (1 << INTF0);
                 _0x94:
00064d b7ea      	IN   R30,0x3A
00064e 64e0      	ORI  R30,0x40
00064f bfea      	OUT  0x3A,R30
                 ; 0000 0054  GICR|=0x40;
000650 b7eb      	IN   R30,0x3B
000651 64e0      	ORI  R30,0x40
000652 bfeb      	OUT  0x3B,R30
                 ; 0000 0055 
                 ; 0000 0056   }
000653 91e9      	LD   R30,Y+
000654 bfef      	OUT  SREG,R30
000655 91f9      	LD   R31,Y+
000656 91e9      	LD   R30,Y+
000657 91b9      	LD   R27,Y+
000658 91a9      	LD   R26,Y+
000659 9199      	LD   R25,Y+
00065a 9189      	LD   R24,Y+
00065b 9179      	LD   R23,Y+
00065c 9169      	LD   R22,Y+
00065d 90f9      	LD   R15,Y+
00065e 9019      	LD   R1,Y+
00065f 9009      	LD   R0,Y+
000660 9518      	RETI
                 ;interrupt [TIM1_COMPA] void timer1_compa_isr(void)
                 ; 0000 0058 {
                 _timer1_compa_isr:
000661 93aa      	ST   -Y,R26
000662 93ea      	ST   -Y,R30
000663 93fa      	ST   -Y,R31
000664 b7ef      	IN   R30,SREG
000665 93ea      	ST   -Y,R30
                 ; 0000 0059 
                 ; 0000 005A B=(!TOOGLE)?buf[step2++]:buf2[step2++];
000666 fc20      	SBRC R2,0
000667 c00a      	RJMP _0x6A
000668 91e0 02ec 	LDS  R30,_step2
00066a 5fef      	SUBI R30,-LOW(1)
00066b 93e0 02ec 	STS  _step2,R30
00066d 50e1      	SUBI R30,LOW(1)
00066e e0f0      	LDI  R31,0
00066f 51e3      	SUBI R30,LOW(-_buf)
000670 4ffd      	SBCI R31,HIGH(-_buf)
000671 c009      	RJMP _0x92
                 _0x6A:
000672 91e0 02ec 	LDS  R30,_step2
000674 5fef      	SUBI R30,-LOW(1)
000675 93e0 02ec 	STS  _step2,R30
000677 50e1      	SUBI R30,LOW(1)
000678 e0f0      	LDI  R31,0
000679 5ce3      	SUBI R30,LOW(-_buf2)
00067a 4ffc      	SBCI R31,HIGH(-_buf2)
                 _0x92:
00067b 81e0      	LD   R30,Z
00067c bbe8      	OUT  0x18,R30
                 ; 0000 005B if (step2>ALL-1) step2=0;
00067d 91a0 02ec 	LDS  R26,_step2
00067f 35a0      	CPI  R26,LOW(0x50)
000680 f018      	BRLO _0x6D
000681 e0e0      	LDI  R30,LOW(0)
000682 93e0 02ec 	STS  _step2,R30
                 ; 0000 005C TCNT1=0;
                 _0x6D:
000684 e0e0      	LDI  R30,LOW(0)
000685 e0f0      	LDI  R31,HIGH(0)
000686 bdfd      	OUT  0x2C+1,R31
000687 bdec      	OUT  0x2C,R30
                 ; 0000 005D 
                 ; 0000 005E }
000688 91e9      	LD   R30,Y+
000689 bfef      	OUT  SREG,R30
00068a 91f9      	LD   R31,Y+
00068b 91e9      	LD   R30,Y+
00068c 91a9      	LD   R26,Y+
00068d 9518      	RETI
                 ;interrupt [TIM2_COMP] void timer1_compb_isr(void)
                 ; 0000 0060 {
                 _timer1_compb_isr:
00068e 93aa      	ST   -Y,R26
00068f 93ea      	ST   -Y,R30
000690 93fa      	ST   -Y,R31
000691 b7ef      	IN   R30,SREG
000692 93ea      	ST   -Y,R30
                 ; 0000 0061 R((TOOGLE)?buf[step++]:buf2[step++]);
000693 fe20      	SBRS R2,0
000694 c00a      	RJMP _0x6E
000695 91e0 02eb 	LDS  R30,_step
000697 5fef      	SUBI R30,-LOW(1)
000698 93e0 02eb 	STS  _step,R30
00069a 50e1      	SUBI R30,LOW(1)
00069b e0f0      	LDI  R31,0
00069c 51e3      	SUBI R30,LOW(-_buf)
00069d 4ffd      	SBCI R31,HIGH(-_buf)
00069e c009      	RJMP _0x93
                 _0x6E:
00069f 91e0 02eb 	LDS  R30,_step
0006a1 5fef      	SUBI R30,-LOW(1)
0006a2 93e0 02eb 	STS  _step,R30
0006a4 50e1      	SUBI R30,LOW(1)
0006a5 e0f0      	LDI  R31,0
0006a6 5ce3      	SUBI R30,LOW(-_buf2)
0006a7 4ffc      	SBCI R31,HIGH(-_buf2)
                 _0x93:
0006a8 81e0      	LD   R30,Z
0006a9 bbe2      	OUT  0x12,R30
0006aa 9992      	SBIC 0x12,2
0006ab c002      	RJMP _0x71
0006ac 98ab      	CBI  0x15,3
0006ad c001      	RJMP _0x72
                 _0x71:
0006ae 9aab      	SBI  0x15,3
                 _0x72:
                 ; 0000 0062 if (step>=ALL-1) step=0;
0006af 91a0 02eb 	LDS  R26,_step
0006b1 34af      	CPI  R26,LOW(0x4F)
0006b2 f018      	BRLO _0x73
0006b3 e0e0      	LDI  R30,LOW(0)
0006b4 93e0 02eb 	STS  _step,R30
                 ; 0000 0063  TCNT2=0;
                 _0x73:
0006b6 e0e0      	LDI  R30,LOW(0)
0006b7 bde4      	OUT  0x24,R30
                 ; 0000 0064 }
0006b8 91e9      	LD   R30,Y+
0006b9 bfef      	OUT  SREG,R30
0006ba 91f9      	LD   R31,Y+
0006bb 91e9      	LD   R30,Y+
0006bc 91a9      	LD   R26,Y+
0006bd 9518      	RETI
                 ;
                 ;
                 ;void main(void)
                 ; 0000 0068 {
                 _main:
                 ; 0000 0069  unsigned int x=0;
                 ; 0000 006A 
                 ; 0000 006B startup();
                 ;	x -> R16,R17
                +
0006be e000     +LDI R16 , LOW ( 0 )
0006bf e010     +LDI R17 , HIGH ( 0 )
                 	__GETWRN 16,17,0
0006c0 dcbf      	RCALL _startup
                 ; 0000 006C fillnil(buf);
0006c1 eeed      	LDI  R30,LOW(_buf)
0006c2 e0f2      	LDI  R31,HIGH(_buf)
0006c3 93fa      	ST   -Y,R31
0006c4 93ea      	ST   -Y,R30
0006c5 dda7      	RCALL _fillnil
                 ; 0000 006D test();
0006c6 ddb2      	RCALL _test
                 ; 0000 006E R(0);
0006c7 e0e0      	LDI  R30,LOW(0)
0006c8 bbe2      	OUT  0x12,R30
0006c9 9992      	SBIC 0x12,2
0006ca c002      	RJMP _0x74
0006cb 98ab      	CBI  0x15,3
0006cc c001      	RJMP _0x75
                 _0x74:
0006cd 9aab      	SBI  0x15,3
                 _0x75:
                 ; 0000 006F B=0;
0006ce e0e0      	LDI  R30,LOW(0)
0006cf bbe8      	OUT  0x18,R30
                 ; 0000 0070 bc=rc=0;
0006d0 98ad      	CBI  0x15,5
0006d1 98ac      	CBI  0x15,4
                 ; 0000 0071   delay_ms(2000);
0006d2 ede0      	LDI  R30,LOW(2000)
0006d3 e0f7      	LDI  R31,HIGH(2000)
0006d4 93fa      	ST   -Y,R31
0006d5 93ea      	ST   -Y,R30
0006d6 d415      	RCALL _delay_ms
                 ; 0000 0072 
                 ; 0000 0073  #asm("sei")
0006d7 9478      	sei
                 ; 0000 0074   R(0); rc=0;
0006d8 e0e0      	LDI  R30,LOW(0)
0006d9 bbe2      	OUT  0x12,R30
0006da 9992      	SBIC 0x12,2
0006db c002      	RJMP _0x7A
0006dc 98ab      	CBI  0x15,3
0006dd c001      	RJMP _0x7B
                 _0x7A:
0006de 9aab      	SBI  0x15,3
                 _0x7B:
0006df 98ad      	CBI  0x15,5
                 ; 0000 0075   put_char("...",1000);
                +
0006e0 e6e0     +LDI R30 , LOW ( _0x7E + ( 0 ) )
0006e1 e0f2     +LDI R31 , HIGH ( _0x7E + ( 0 ) )
                 	__POINTW1MN _0x7E,0
0006e2 93fa      	ST   -Y,R31
0006e3 93ea      	ST   -Y,R30
0006e4 eee8      	LDI  R30,LOW(232)
0006e5 93ea      	ST   -Y,R30
0006e6 dd61      	RCALL _put_char
                 ; 0000 0076          delay_s(3);
0006e7 e0e3      	LDI  R30,LOW(3)
0006e8 93ea      	ST   -Y,R30
0006e9 ddf7      	RCALL _delay_s
                 ; 0000 0077          for(x=10; x>0; x--) {   ltoa(  x, digbuf); put_char(digbuf,0); delay_ms(1000);     }
                +
0006ea e00a     +LDI R16 , LOW ( 10 )
0006eb e010     +LDI R17 , HIGH ( 10 )
                 	__GETWRN 16,17,10
                 _0x80:
0006ec 2400      	CLR  R0
0006ed 1600      	CP   R0,R16
0006ee 0601      	CPC  R0,R17
0006ef f4c0      	BRSH _0x81
0006f0 01f8      	MOVW R30,R16
0006f1 2766      	CLR  R22
0006f2 2777      	CLR  R23
0006f3 d5a8      	RCALL __PUTPARD1
0006f4 eded      	LDI  R30,LOW(_digbuf)
0006f5 e0f3      	LDI  R31,HIGH(_digbuf)
0006f6 93fa      	ST   -Y,R31
0006f7 93ea      	ST   -Y,R30
0006f8 d1d8      	RCALL _ltoa
0006f9 eded      	LDI  R30,LOW(_digbuf)
0006fa e0f3      	LDI  R31,HIGH(_digbuf)
0006fb 93fa      	ST   -Y,R31
0006fc 93ea      	ST   -Y,R30
0006fd e0e0      	LDI  R30,LOW(0)
0006fe 93ea      	ST   -Y,R30
0006ff dd48      	RCALL _put_char
000700 eee8      	LDI  R30,LOW(1000)
000701 e0f3      	LDI  R31,HIGH(1000)
000702 93fa      	ST   -Y,R31
000703 93ea      	ST   -Y,R30
000704 d3e7      	RCALL _delay_ms
                +
000705 5001     +SUBI R16 , LOW ( 1 )
000706 4010     +SBCI R17 , HIGH ( 1 )
                 	__SUBWRN 16,17,1
000707 cfe4      	RJMP _0x80
                 _0x81:
                 ; 0000 0078             background(6);
000708 e0e6      	LDI  R30,LOW(6)
000709 93ea      	ST   -Y,R30
00070a dde3      	RCALL _background
                 ; 0000 0079   put_char("",1000);
                +
00070b e6ea     +LDI R30 , LOW ( _0x7E + ( 10 ) )
00070c e0f2     +LDI R31 , HIGH ( _0x7E + ( 10 ) )
                 	__POINTW1MN _0x7E,10
00070d 93fa      	ST   -Y,R31
00070e 93ea      	ST   -Y,R30
00070f eee8      	LDI  R30,LOW(232)
000710 93ea      	ST   -Y,R30
000711 dd36      	RCALL _put_char
                 ; 0000 007A 
                 ; 0000 007B     while(1)
                 _0x82:
                 ; 0000 007C      {
                 ; 0000 007D 
                 ; 0000 007E      writeocr();
000712 ddf7      	RCALL _writeocr
                 ; 0000 007F        while( (temper=ds18b20_temperature(0)) && (temper<-50 || temper>80)) {    delay_ms(5);   }
                 _0x85:
000713 e0e0      	LDI  R30,LOW(0)
000714 e0f0      	LDI  R31,HIGH(0)
000715 93fa      	ST   -Y,R31
000716 93ea      	ST   -Y,R30
000717 d266      	RCALL _ds18b20_temperature
000718 d474      	RCALL __CFD1
000719 012f      	MOVW R4,R30
00071a 9730      	SBIW R30,0
00071b f059      	BREQ _0x88
00071c ecee      	LDI  R30,LOW(65486)
00071d efff      	LDI  R31,HIGH(65486)
00071e 164e      	CP   R4,R30
00071f 065f      	CPC  R5,R31
000720 f02c      	BRLT _0x89
000721 e5e0      	LDI  R30,LOW(80)
000722 e0f0      	LDI  R31,HIGH(80)
000723 15e4      	CP   R30,R4
000724 05f5      	CPC  R31,R5
000725 f40c      	BRGE _0x88
                 _0x89:
000726 c001      	RJMP _0x8B
                 _0x88:
000727 c006      	RJMP _0x87
                 _0x8B:
000728 e0e5      	LDI  R30,LOW(5)
000729 e0f0      	LDI  R31,HIGH(5)
00072a 93fa      	ST   -Y,R31
00072b 93ea      	ST   -Y,R30
00072c d3bf      	RCALL _delay_ms
00072d cfe5      	RJMP _0x85
                 _0x87:
                 ; 0000 0080 
                 ; 0000 0081          ltoa(  temper, digbuf);
00072e 01f2      	MOVW R30,R4
00072f d529      	RCALL __CWD1
000730 d56b      	RCALL __PUTPARD1
000731 eded      	LDI  R30,LOW(_digbuf)
000732 e0f3      	LDI  R31,HIGH(_digbuf)
000733 93fa      	ST   -Y,R31
000734 93ea      	ST   -Y,R30
000735 d19b      	RCALL _ltoa
                 ; 0000 0082 
                 ; 0000 0083       fillnil (  buffer );
000736 e8ed      	LDI  R30,LOW(_buffer)
000737 e0f3      	LDI  R31,HIGH(_buffer)
000738 93fa      	ST   -Y,R31
000739 93ea      	ST   -Y,R30
00073a dd32      	RCALL _fillnil
                 ; 0000 0084 
                 ; 0000 0085       strcat(buffer," :");
00073b e8ed      	LDI  R30,LOW(_buffer)
00073c e0f3      	LDI  R31,HIGH(_buffer)
00073d 93fa      	ST   -Y,R31
00073e 93ea      	ST   -Y,R30
                +
00073f e6eb     +LDI R30 , LOW ( _0x7E + ( 11 ) )
000740 e0f2     +LDI R31 , HIGH ( _0x7E + ( 11 ) )
                 	__POINTW1MN _0x7E,11
000741 93fa      	ST   -Y,R31
000742 93ea      	ST   -Y,R30
000743 d159      	RCALL _strcat
                 ; 0000 0086       strcat(buffer,digbuf);
000744 e8ed      	LDI  R30,LOW(_buffer)
000745 e0f3      	LDI  R31,HIGH(_buffer)
000746 93fa      	ST   -Y,R31
000747 93ea      	ST   -Y,R30
000748 eded      	LDI  R30,LOW(_digbuf)
000749 e0f3      	LDI  R31,HIGH(_digbuf)
00074a 93fa      	ST   -Y,R31
00074b 93ea      	ST   -Y,R30
00074c d150      	RCALL _strcat
                 ; 0000 0087       strcat(buffer,"c");
00074d e8ed      	LDI  R30,LOW(_buffer)
00074e e0f3      	LDI  R31,HIGH(_buffer)
00074f 93fa      	ST   -Y,R31
000750 93ea      	ST   -Y,R30
                +
000751 e7e6     +LDI R30 , LOW ( _0x7E + ( 22 ) )
000752 e0f2     +LDI R31 , HIGH ( _0x7E + ( 22 ) )
                 	__POINTW1MN _0x7E,22
000753 93fa      	ST   -Y,R31
000754 93ea      	ST   -Y,R30
000755 d147      	RCALL _strcat
                 ; 0000 0088        put_char(buffer,1000);
000756 e8ed      	LDI  R30,LOW(_buffer)
000757 e0f3      	LDI  R31,HIGH(_buffer)
000758 93fa      	ST   -Y,R31
000759 93ea      	ST   -Y,R30
00075a eee8      	LDI  R30,LOW(232)
00075b 93ea      	ST   -Y,R30
00075c dceb      	RCALL _put_char
                 ; 0000 0089        delay_s(10);
00075d e0ea      	LDI  R30,LOW(10)
00075e 93ea      	ST   -Y,R30
00075f dd81      	RCALL _delay_s
                 ; 0000 008A        fillnil (  buffer );
000760 e8ed      	LDI  R30,LOW(_buffer)
000761 e0f3      	LDI  R31,HIGH(_buffer)
000762 93fa      	ST   -Y,R31
000763 93ea      	ST   -Y,R30
000764 dd08      	RCALL _fillnil
                 ; 0000 008B        gettime() ;
000765 dbfb      	RCALL _gettime
                 ; 0000 008C         strcpy(buffer,":  ");
000766 e8ed      	LDI  R30,LOW(_buffer)
000767 e0f3      	LDI  R31,HIGH(_buffer)
000768 93fa      	ST   -Y,R31
000769 93ea      	ST   -Y,R30
                +
00076a e7e8     +LDI R30 , LOW ( _0x7E + ( 24 ) )
00076b e0f2     +LDI R31 , HIGH ( _0x7E + ( 24 ) )
                 	__POINTW1MN _0x7E,24
00076c 93fa      	ST   -Y,R31
00076d 93ea      	ST   -Y,R30
00076e d14c      	RCALL _strcpy
                 ; 0000 008D        ltoa(  t.hour, digbuf);
                +
00076f 91e0 0412+LDS R30 , _t + ( 2 )
                 	__GETB1MN _t,2
000771 e0f0      	LDI  R31,0
000772 d4e6      	RCALL __CWD1
000773 d528      	RCALL __PUTPARD1
000774 eded      	LDI  R30,LOW(_digbuf)
000775 e0f3      	LDI  R31,HIGH(_digbuf)
000776 93fa      	ST   -Y,R31
000777 93ea      	ST   -Y,R30
000778 d158      	RCALL _ltoa
                 ; 0000 008E        strcat(buffer,digbuf);
000779 e8ed      	LDI  R30,LOW(_buffer)
00077a e0f3      	LDI  R31,HIGH(_buffer)
00077b 93fa      	ST   -Y,R31
00077c 93ea      	ST   -Y,R30
00077d eded      	LDI  R30,LOW(_digbuf)
00077e e0f3      	LDI  R31,HIGH(_digbuf)
00077f 93fa      	ST   -Y,R31
000780 93ea      	ST   -Y,R30
000781 d11b      	RCALL _strcat
                 ; 0000 008F        strcat(buffer,":");
000782 e8ed      	LDI  R30,LOW(_buffer)
000783 e0f3      	LDI  R31,HIGH(_buffer)
000784 93fa      	ST   -Y,R31
000785 93ea      	ST   -Y,R30
                +
000786 e8e1     +LDI R30 , LOW ( _0x7E + ( 33 ) )
000787 e0f2     +LDI R31 , HIGH ( _0x7E + ( 33 ) )
                 	__POINTW1MN _0x7E,33
000788 93fa      	ST   -Y,R31
000789 93ea      	ST   -Y,R30
00078a d112      	RCALL _strcat
                 ; 0000 0090         ltoa(  t.min, digbuf);
                +
00078b 91e0 0411+LDS R30 , _t + ( 1 )
                 	__GETB1MN _t,1
00078d e0f0      	LDI  R31,0
00078e d4ca      	RCALL __CWD1
00078f d50c      	RCALL __PUTPARD1
000790 eded      	LDI  R30,LOW(_digbuf)
000791 e0f3      	LDI  R31,HIGH(_digbuf)
000792 93fa      	ST   -Y,R31
000793 93ea      	ST   -Y,R30
000794 d13c      	RCALL _ltoa
                 ; 0000 0091         if(t.min<10) strcat(buffer,"0");
                +
000795 91a0 0411+LDS R26 , _t + ( 1 )
                 	__GETB2MN _t,1
000797 30aa      	CPI  R26,LOW(0xA)
000798 f448      	BRSH _0x8C
000799 e8ed      	LDI  R30,LOW(_buffer)
00079a e0f3      	LDI  R31,HIGH(_buffer)
00079b 93fa      	ST   -Y,R31
00079c 93ea      	ST   -Y,R30
                +
00079d e8e3     +LDI R30 , LOW ( _0x7E + ( 35 ) )
00079e e0f2     +LDI R31 , HIGH ( _0x7E + ( 35 ) )
                 	__POINTW1MN _0x7E,35
00079f 93fa      	ST   -Y,R31
0007a0 93ea      	ST   -Y,R30
0007a1 d0fb      	RCALL _strcat
                 ; 0000 0092        strcat(buffer,digbuf);
                 _0x8C:
0007a2 e8ed      	LDI  R30,LOW(_buffer)
0007a3 e0f3      	LDI  R31,HIGH(_buffer)
0007a4 93fa      	ST   -Y,R31
0007a5 93ea      	ST   -Y,R30
0007a6 eded      	LDI  R30,LOW(_digbuf)
0007a7 e0f3      	LDI  R31,HIGH(_digbuf)
0007a8 93fa      	ST   -Y,R31
0007a9 93ea      	ST   -Y,R30
0007aa d0f2      	RCALL _strcat
                 ; 0000 0093         put_char(buffer,1000);
0007ab e8ed      	LDI  R30,LOW(_buffer)
0007ac e0f3      	LDI  R31,HIGH(_buffer)
0007ad 93fa      	ST   -Y,R31
0007ae 93ea      	ST   -Y,R30
0007af eee8      	LDI  R30,LOW(232)
0007b0 93ea      	ST   -Y,R30
0007b1 dc96      	RCALL _put_char
                 ; 0000 0094           delay_s(10);
0007b2 e0ea      	LDI  R30,LOW(10)
0007b3 93ea      	ST   -Y,R30
0007b4 dd2c      	RCALL _delay_s
                 ; 0000 0095         strcpyf(buffer,week[t.dow-1]);
0007b5 e8ed      	LDI  R30,LOW(_buffer)
0007b6 e0f3      	LDI  R31,HIGH(_buffer)
0007b7 93fa      	ST   -Y,R31
0007b8 93ea      	ST   -Y,R30
                +
0007b9 91e0 0413+LDS R30 , _t + ( 3 )
                 	__GETB1MN _t,3
0007bb e0f0      	LDI  R31,0
0007bc 9731      	SBIW R30,1
0007bd e0a2      	LDI  R26,LOW(_week)
0007be e0b4      	LDI  R27,HIGH(_week)
0007bf 0fee      	LSL  R30
0007c0 1fff      	ROL  R31
0007c1 0fae      	ADD  R26,R30
0007c2 1fbf      	ADC  R27,R31
0007c3 d4d0      	RCALL __GETW1P
0007c4 93fa      	ST   -Y,R31
0007c5 93ea      	ST   -Y,R30
0007c6 d0ff      	RCALL _strcpyf
                 ; 0000 0096         put_char(buffer,1000);
0007c7 e8ed      	LDI  R30,LOW(_buffer)
0007c8 e0f3      	LDI  R31,HIGH(_buffer)
0007c9 93fa      	ST   -Y,R31
0007ca 93ea      	ST   -Y,R30
0007cb eee8      	LDI  R30,LOW(232)
0007cc 93ea      	ST   -Y,R30
0007cd dc7a      	RCALL _put_char
                 ; 0000 0097          delay_s(10);
0007ce e0ea      	LDI  R30,LOW(10)
0007cf 93ea      	ST   -Y,R30
0007d0 dd10      	RCALL _delay_s
                 ; 0000 0098 
                 ; 0000 0099          ltoa(  t.date, digbuf);
                +
0007d1 91e0 0414+LDS R30 , _t + ( 4 )
                 	__GETB1MN _t,4
0007d3 e0f0      	LDI  R31,0
0007d4 d484      	RCALL __CWD1
0007d5 d4c6      	RCALL __PUTPARD1
0007d6 eded      	LDI  R30,LOW(_digbuf)
0007d7 e0f3      	LDI  R31,HIGH(_digbuf)
0007d8 93fa      	ST   -Y,R31
0007d9 93ea      	ST   -Y,R30
0007da d0f6      	RCALL _ltoa
                 ; 0000 009A             strcpy(buffer,digbuf);
0007db e8ed      	LDI  R30,LOW(_buffer)
0007dc e0f3      	LDI  R31,HIGH(_buffer)
0007dd 93fa      	ST   -Y,R31
0007de 93ea      	ST   -Y,R30
0007df eded      	LDI  R30,LOW(_digbuf)
0007e0 e0f3      	LDI  R31,HIGH(_digbuf)
0007e1 93fa      	ST   -Y,R31
0007e2 93ea      	ST   -Y,R30
0007e3 d0d7      	RCALL _strcpy
                 ; 0000 009B              strcat(buffer," ");
0007e4 e8ed      	LDI  R30,LOW(_buffer)
0007e5 e0f3      	LDI  R31,HIGH(_buffer)
0007e6 93fa      	ST   -Y,R31
0007e7 93ea      	ST   -Y,R30
                +
0007e8 e8e5     +LDI R30 , LOW ( _0x7E + ( 37 ) )
0007e9 e0f2     +LDI R31 , HIGH ( _0x7E + ( 37 ) )
                 	__POINTW1MN _0x7E,37
0007ea 93fa      	ST   -Y,R31
0007eb 93ea      	ST   -Y,R30
0007ec d0b0      	RCALL _strcat
                 ; 0000 009C              strcatf(buffer,month[t.month-1]);
0007ed e8ed      	LDI  R30,LOW(_buffer)
0007ee e0f3      	LDI  R31,HIGH(_buffer)
0007ef 93fa      	ST   -Y,R31
0007f0 93ea      	ST   -Y,R30
                +
0007f1 91e0 0415+LDS R30 , _t + ( 5 )
                 	__GETB1MN _t,5
0007f3 e0f0      	LDI  R31,0
0007f4 9731      	SBIW R30,1
0007f5 eeaa      	LDI  R26,LOW(_month)
0007f6 e0b3      	LDI  R27,HIGH(_month)
0007f7 0fee      	LSL  R30
0007f8 1fff      	ROL  R31
0007f9 0fae      	ADD  R26,R30
0007fa 1fbf      	ADC  R27,R31
0007fb d498      	RCALL __GETW1P
0007fc 93fa      	ST   -Y,R31
0007fd 93ea      	ST   -Y,R30
0007fe d0ad      	RCALL _strcatf
                 ; 0000 009D              strcat(buffer," 20");
0007ff e8ed      	LDI  R30,LOW(_buffer)
000800 e0f3      	LDI  R31,HIGH(_buffer)
000801 93fa      	ST   -Y,R31
000802 93ea      	ST   -Y,R30
                +
000803 e8e7     +LDI R30 , LOW ( _0x7E + ( 39 ) )
000804 e0f2     +LDI R31 , HIGH ( _0x7E + ( 39 ) )
                 	__POINTW1MN _0x7E,39
000805 93fa      	ST   -Y,R31
000806 93ea      	ST   -Y,R30
000807 d095      	RCALL _strcat
                 ; 0000 009E              ltoa(  t.year, digbuf);
                +
000808 91e0 0416+LDS R30 , _t + ( 6 )
                 	__GETB1MN _t,6
00080a e0f0      	LDI  R31,0
00080b d44d      	RCALL __CWD1
00080c d48f      	RCALL __PUTPARD1
00080d eded      	LDI  R30,LOW(_digbuf)
00080e e0f3      	LDI  R31,HIGH(_digbuf)
00080f 93fa      	ST   -Y,R31
000810 93ea      	ST   -Y,R30
000811 d0bf      	RCALL _ltoa
                 ; 0000 009F               strcat(buffer,digbuf);
000812 e8ed      	LDI  R30,LOW(_buffer)
000813 e0f3      	LDI  R31,HIGH(_buffer)
000814 93fa      	ST   -Y,R31
000815 93ea      	ST   -Y,R30
000816 eded      	LDI  R30,LOW(_digbuf)
000817 e0f3      	LDI  R31,HIGH(_digbuf)
000818 93fa      	ST   -Y,R31
000819 93ea      	ST   -Y,R30
00081a d082      	RCALL _strcat
                 ; 0000 00A0             put_char(buffer,1000);
00081b e8ed      	LDI  R30,LOW(_buffer)
00081c e0f3      	LDI  R31,HIGH(_buffer)
00081d 93fa      	ST   -Y,R31
00081e 93ea      	ST   -Y,R30
00081f eee8      	LDI  R30,LOW(232)
000820 93ea      	ST   -Y,R30
000821 dc26      	RCALL _put_char
                 ; 0000 00A1        delay_s(10);
000822 e0ea      	LDI  R30,LOW(10)
000823 93ea      	ST   -Y,R30
000824 dcbc      	RCALL _delay_s
                 ; 0000 00A2        put_char("AVR ATMEGA 8",2000);
                +
000825 e8eb     +LDI R30 , LOW ( _0x7E + ( 43 ) )
000826 e0f2     +LDI R31 , HIGH ( _0x7E + ( 43 ) )
                 	__POINTW1MN _0x7E,43
000827 93fa      	ST   -Y,R31
000828 93ea      	ST   -Y,R30
000829 ede0      	LDI  R30,LOW(208)
00082a 93ea      	ST   -Y,R30
00082b dc1c      	RCALL _put_char
                 ; 0000 00A3            delay_s(10);
00082c e0ea      	LDI  R30,LOW(10)
00082d 93ea      	ST   -Y,R30
00082e dcb2      	RCALL _delay_s
                 ; 0000 00A4             put_char("  ",2000);
                +
00082f e9e8     +LDI R30 , LOW ( _0x7E + ( 56 ) )
000830 e0f2     +LDI R31 , HIGH ( _0x7E + ( 56 ) )
                 	__POINTW1MN _0x7E,56
000831 93fa      	ST   -Y,R31
000832 93ea      	ST   -Y,R30
000833 ede0      	LDI  R30,LOW(208)
000834 93ea      	ST   -Y,R30
000835 dc12      	RCALL _put_char
                 ; 0000 00A5            delay_s(10);
000836 e0ea      	LDI  R30,LOW(10)
000837 93ea      	ST   -Y,R30
000838 dca8      	RCALL _delay_s
                 ; 0000 00A6            put_char("",2000);
                +
000839 eae5     +LDI R30 , LOW ( _0x7E + ( 69 ) )
00083a e0f2     +LDI R31 , HIGH ( _0x7E + ( 69 ) )
                 	__POINTW1MN _0x7E,69
00083b 93fa      	ST   -Y,R31
00083c 93ea      	ST   -Y,R30
00083d ede0      	LDI  R30,LOW(208)
00083e 93ea      	ST   -Y,R30
00083f dc08      	RCALL _put_char
                 ; 0000 00A7            delay_s(10);
000840 e0ea      	LDI  R30,LOW(10)
000841 93ea      	ST   -Y,R30
000842 dc9e      	RCALL _delay_s
                 ; 0000 00A8            put_char(". ",2000);
                +
000843 eaed     +LDI R30 , LOW ( _0x7E + ( 77 ) )
000844 e0f2     +LDI R31 , HIGH ( _0x7E + ( 77 ) )
                 	__POINTW1MN _0x7E,77
000845 93fa      	ST   -Y,R31
000846 93ea      	ST   -Y,R30
000847 ede0      	LDI  R30,LOW(208)
000848 93ea      	ST   -Y,R30
000849 dbfe      	RCALL _put_char
                 ; 0000 00A9            delay_s(10);
00084a e0ea      	LDI  R30,LOW(10)
00084b 93ea      	ST   -Y,R30
00084c dc94      	RCALL _delay_s
                 ; 0000 00AA            put_char(" ",2000);
                +
00084d ebe9     +LDI R30 , LOW ( _0x7E + ( 89 ) )
00084e e0f2     +LDI R31 , HIGH ( _0x7E + ( 89 ) )
                 	__POINTW1MN _0x7E,89
00084f 93fa      	ST   -Y,R31
000850 93ea      	ST   -Y,R30
000851 ede0      	LDI  R30,LOW(208)
000852 93ea      	ST   -Y,R30
000853 dbf4      	RCALL _put_char
                 ; 0000 00AB            delay_s(10);
000854 e0ea      	LDI  R30,LOW(10)
000855 93ea      	ST   -Y,R30
000856 dc8a      	RCALL _delay_s
                 ; 0000 00AC                 put_char("=) :) ^_^ ;-)",2000);
                +
000857 ece4     +LDI R30 , LOW ( _0x7E + ( 100 ) )
000858 e0f2     +LDI R31 , HIGH ( _0x7E + ( 100 ) )
                 	__POINTW1MN _0x7E,100
000859 93fa      	ST   -Y,R31
00085a 93ea      	ST   -Y,R30
00085b ede0      	LDI  R30,LOW(208)
00085c 93ea      	ST   -Y,R30
00085d dbea      	RCALL _put_char
                 ; 0000 00AD            delay_s(10);
00085e e0ea      	LDI  R30,LOW(10)
00085f 93ea      	ST   -Y,R30
000860 dc80      	RCALL _delay_s
                 ; 0000 00AE     /*   put_char(". ",2000);
                 ; 0000 00AF         delay_s(10);
                 ; 0000 00B0           put_char(" <3 ",2000);
                 ; 0000 00B1             delay_s(10);
                 ; 0000 00B2           put_char("=) :) ^_^ ;-)",2000);
                 ; 0000 00B3            delay_s(10);
                 ; 0000 00B4             put_char(" !",2000);
                 ; 0000 00B5            delay_s(10);
                 ; 0000 00B6            put_char("  :)",2000);
                 ; 0000 00B7            delay_s(10);
                 ; 0000 00B8            put_char(" 45000",2000);
                 ; 0000 00B9            delay_s(10);
                 ; 0000 00BA         */
                 ; 0000 00BB            fillnil (  buffer );
000861 e8ed      	LDI  R30,LOW(_buffer)
000862 e0f3      	LDI  R31,HIGH(_buffer)
000863 93fa      	ST   -Y,R31
000864 93ea      	ST   -Y,R30
000865 dc07      	RCALL _fillnil
                 ; 0000 00BC            for(x=100; x>0; x--) {   ltoa(  x, digbuf); put_char(digbuf,0); delay_ms(100);     }
                +
000866 e604     +LDI R16 , LOW ( 100 )
000867 e010     +LDI R17 , HIGH ( 100 )
                 	__GETWRN 16,17,100
                 _0x8E:
000868 2400      	CLR  R0
000869 1600      	CP   R0,R16
00086a 0601      	CPC  R0,R17
00086b f4c0      	BRSH _0x8F
00086c 01f8      	MOVW R30,R16
00086d 2766      	CLR  R22
00086e 2777      	CLR  R23
00086f d42c      	RCALL __PUTPARD1
000870 eded      	LDI  R30,LOW(_digbuf)
000871 e0f3      	LDI  R31,HIGH(_digbuf)
000872 93fa      	ST   -Y,R31
000873 93ea      	ST   -Y,R30
000874 d05c      	RCALL _ltoa
000875 eded      	LDI  R30,LOW(_digbuf)
000876 e0f3      	LDI  R31,HIGH(_digbuf)
000877 93fa      	ST   -Y,R31
000878 93ea      	ST   -Y,R30
000879 e0e0      	LDI  R30,LOW(0)
00087a 93ea      	ST   -Y,R30
00087b dbcc      	RCALL _put_char
00087c e6e4      	LDI  R30,LOW(100)
00087d e0f0      	LDI  R31,HIGH(100)
00087e 93fa      	ST   -Y,R31
00087f 93ea      	ST   -Y,R30
000880 d26b      	RCALL _delay_ms
                +
000881 5001     +SUBI R16 , LOW ( 1 )
000882 4010     +SBCI R17 , HIGH ( 1 )
                 	__SUBWRN 16,17,1
000883 cfe4      	RJMP _0x8E
                 _0x8F:
                 ; 0000 00BD            put_char("BOOM!!! :-D",5000);
                +
000884 ede2     +LDI R30 , LOW ( _0x7E + ( 114 ) )
000885 e0f2     +LDI R31 , HIGH ( _0x7E + ( 114 ) )
                 	__POINTW1MN _0x7E,114
000886 93fa      	ST   -Y,R31
000887 93ea      	ST   -Y,R30
000888 e8e8      	LDI  R30,LOW(136)
000889 93ea      	ST   -Y,R30
00088a dbbd      	RCALL _put_char
                 ; 0000 00BE            delay_s(3);
00088b e0e3      	LDI  R30,LOW(3)
00088c 93ea      	ST   -Y,R30
00088d dc53      	RCALL _delay_s
                 ; 0000 00BF      }
00088e ce83      	RJMP _0x82
                 ; 0000 00C0 
                 ; 0000 00C1     /*
                 ; 0000 00C2    while(1) {
                 ; 0000 00C3 
                 ; 0000 00C4      while( (temper=ds18b20_temperature(0)) && (temper<-50 || temper>80)) {    delay_us(400);   }
                 ; 0000 00C5    gettime() ;
                 ; 0000 00C6       fillnil (  buffer );
                 ; 0000 00C7    ltoa(  temper, buffer);
                 ; 0000 00C8 
                 ; 0000 00C9 
                 ; 0000 00CA 
                 ; 0000 00CB 
                 ; 0000 00CC 
                 ; 0000 00CD     put_char( buffer ,1000);
                 ; 0000 00CE    delay_ms(1000);
                 ; 0000 00CF     ltoa(  t.min, buffer);
                 ; 0000 00D0      put_char(buffer,1000);
                 ; 0000 00D1       delay_ms(1000); }
                 ; 0000 00D2 
                 ; 0000 00D3 
                 ; 0000 00D4 
                 ; 0000 00D5     while(1)
                 ; 0000 00D6 
                 ; 0000 00D7     {
                 ; 0000 00D8 
                 ; 0000 00D9 
                 ; 0000 00DA 
                 ; 0000 00DB 
                 ; 0000 00DC 
                 ; 0000 00DD     fillnil (  buffer );
                 ; 0000 00DE   ltoa(  temper, buffer);  *buffer=*strcat(": ",buffer);   put_char(buffer,1000);
                 ; 0000 00DF     delay_s(5);
                 ; 0000 00E0    fillnil (  buffer );
                 ; 0000 00E1 
                 ; 0000 00E2 
                 ; 0000 00E3 
                 ; 0000 00E4   ltoa(  t.hour, buffer);
                 ; 0000 00E5  *buffer=*strcat(": ",buffer);
                 ; 0000 00E6  put_char(buffer,1000);
                 ; 0000 00E7       delay_s(5);
                 ; 0000 00E8        fillnil (  buffer );
                 ; 0000 00E9      ltoa(  t.min, buffer);
                 ; 0000 00EA 
                 ; 0000 00EB      *buffer=*strcat(": ",buffer);
                 ; 0000 00EC  put_char(buffer,1000);
                 ; 0000 00ED       fillnil (  buffer );
                 ; 0000 00EE   delay_s(5);
                 ; 0000 00EF     }
                 ; 0000 00F0 
                 ; 0000 00F1     while(1) {
                 ; 0000 00F2 
                 ; 0000 00F3 
                 ; 0000 00F4     //    ltoa( counter, buffer); put_char(buffer,1);
                 ; 0000 00F5      while(!RC_FLAG);
                 ; 0000 00F6 
                 ; 0000 00F7 
                 ; 0000 00F8 
                 ; 0000 00F9 RC_FLAG=0;
                 ; 0000 00FA 
                 ; 0000 00FB 
                 ; 0000 00FC 
                 ; 0000 00FD   put_char(buffer,1);
                 ; 0000 00FE    delay_ms(1000);
                 ; 0000 00FF 
                 ; 0000 0100    }
                 ; 0000 0101 
                 ; 0000 0102 
                 ; 0000 0103 
                 ; 0000 0104 
                 ; 0000 0105 
                 ; 0000 0106 
                 ; 0000 0107    for(x=100; x!=0; x--) { ltoa(x, buffer); put_char(buffer,1); delay_ms(50); }
                 ; 0000 0108             delay_s(1);
                 ; 0000 0109              rc=0;
                 ; 0000 010A              background(6);
                 ; 0000 010B              put_char("!",1000);
                 ; 0000 010C                    delay_s(5);
                 ; 0000 010D 
                 ; 0000 010E 
                 ; 0000 010F        put_char("",1000);
                 ; 0000 0110 
                 ; 0000 0111        background(0);
                 ; 0000 0112        delay_s(5);
                 ; 0000 0113         TOOGLE ^=1;
                 ; 0000 0114          delay_s(10);
                 ; 0000 0115           TOOGLE ^=1;
                 ; 0000 0116     background(2);
                 ; 0000 0117            put_char("-",1000);
                 ; 0000 0118              delay_s(15);
                 ; 0000 0119 
                 ; 0000 011A      background(3);
                 ; 0000 011B   while(1){
                 ; 0000 011C     rc=0;
                 ; 0000 011D 
                 ; 0000 011E           put_char("  ",1000);
                 ; 0000 011F            delay_s(10);
                 ; 0000 0120         put_char(": bumate.ru",1000);
                 ; 0000 0121          delay_s(10);
                 ; 0000 0122           put_char(" 29471",1000);
                 ; 0000 0123          delay_s(10);
                 ; 0000 0124           put_char("- 2015",1000);
                 ; 0000 0125          delay_s(10);
                 ; 0000 0126             put_char(":-) :-D =) ^_^",1000);
                 ; 0000 0127          delay_s(10);
                 ; 0000 0128           bg=(bg>6)?3:(bg+1);
                 ; 0000 0129          background(bg);
                 ; 0000 012A          }
                 ; 0000 012B               */
                 ; 0000 012C 
                 ; 0000 012D 
                 ; 0000 012E 
                 ; 0000 012F 
                 ; 0000 0130 
                 ; 0000 0131 
                 ; 0000 0132 
                 ; 0000 0133 }
                 _0x90:
00088f cfff      	RJMP _0x90
                 
                 	.DSEG
                 _0x7E:
000260           	.BYTE 0x7E
                 
                 	.CSEG
                 _memset:
000890 81b9          ldd  r27,y+1
000891 81a8          ld   r26,y
000892 9610          adiw r26,0
000893 f031          breq memset1
000894 81fc          ldd  r31,y+4
000895 81eb          ldd  r30,y+3
000896 816a          ldd  r22,y+2
                 memset0:
000897 9361          st   z+,r22
000898 9711          sbiw r26,1
000899 f7e9          brne memset0
                 memset1:
00089a 81eb          ldd  r30,y+3
00089b 81fc          ldd  r31,y+4
00089c c17f      	RJMP _0x20E0003
                 _strcat:
00089d 91e9          ld   r30,y+
00089e 91f9          ld   r31,y+
00089f 91a9          ld   r26,y+
0008a0 91b9          ld   r27,y+
0008a1 01cd          movw r24,r26
                 strcat0:
0008a2 916d          ld   r22,x+
0008a3 2366          tst  r22
0008a4 f7e9          brne strcat0
0008a5 9711          sbiw r26,1
                 strcat1:
0008a6 9161          ld   r22,z+
0008a7 936d          st   x+,r22
0008a8 2366          tst  r22
0008a9 f7e1          brne strcat1
0008aa 01fc          movw r30,r24
0008ab 9508          ret
                 _strcatf:
0008ac 91e9          ld   r30,y+
0008ad 91f9          ld   r31,y+
0008ae 91a9          ld   r26,y+
0008af 91b9          ld   r27,y+
0008b0 01cd          movw r24,r26
                 strcatf0:
0008b1 916d          ld   r22,x+
0008b2 2366          tst  r22
0008b3 f7e9          brne strcatf0
0008b4 9711          sbiw r26,1
                 strcatf1:
0008b5 9005      	lpm  r0,z+
0008b6 920d          st   x+,r0
0008b7 2000          tst  r0
0008b8 f7e1          brne strcatf1
0008b9 01fc          movw r30,r24
0008ba 9508          ret
                 _strcpy:
0008bb 91e9          ld   r30,y+
0008bc 91f9          ld   r31,y+
0008bd 91a9          ld   r26,y+
0008be 91b9          ld   r27,y+
0008bf 01cd          movw r24,r26
                 strcpy0:
0008c0 9161          ld   r22,z+
0008c1 936d          st   x+,r22
0008c2 2366          tst  r22
0008c3 f7e1          brne strcpy0
0008c4 01fc          movw r30,r24
0008c5 9508          ret
                 _strcpyf:
0008c6 91e9          ld   r30,y+
0008c7 91f9          ld   r31,y+
0008c8 91a9          ld   r26,y+
0008c9 91b9          ld   r27,y+
0008ca 01cd          movw r24,r26
                 strcpyf0:
0008cb 9005      	lpm  r0,z+
0008cc 920d          st   x+,r0
0008cd 2000          tst  r0
0008ce f7e1          brne strcpyf0
0008cf 01fc          movw r30,r24
0008d0 9508          ret
                 
                 	.CSEG
                 _ltoa:
0008d1 9724      	SBIW R28,4
0008d2 d402      	RCALL __SAVELOCR2
                +
0008d3 e0e0     +LDI R30 , LOW ( 0x3B9ACA00 )
0008d4 ecfa     +LDI R31 , HIGH ( 0x3B9ACA00 )
0008d5 e96a     +LDI R22 , BYTE3 ( 0x3B9ACA00 )
0008d6 e37b     +LDI R23 , BYTE4 ( 0x3B9ACA00 )
                 	__GETD1N 0x3B9ACA00
                +
0008d7 83ea     +STD Y + 2 , R30
0008d8 83fb     +STD Y + 2 + 1 , R31
0008d9 836c     +STD Y + 2 + 2 , R22
0008da 837d     +STD Y + 2 + 3 , R23
                 	__PUTD1S 2
0008db e000      	LDI  R16,LOW(0)
0008dc 85ab      	LDD  R26,Y+11
0008dd 23aa      	TST  R26
0008de f48a      	BRPL _0x2020003
                +
0008df 85e8     +LDD R30 , Y + 8
0008e0 85f9     +LDD R31 , Y + 8 + 1
0008e1 856a     +LDD R22 , Y + 8 + 2
0008e2 857b     +LDD R23 , Y + 8 + 3
                 	__GETD1S 8
0008e3 d35c      	RCALL __ANEGD1
                +
0008e4 87e8     +STD Y + 8 , R30
0008e5 87f9     +STD Y + 8 + 1 , R31
0008e6 876a     +STD Y + 8 + 2 , R22
0008e7 877b     +STD Y + 8 + 3 , R23
                 	__PUTD1S 8
0008e8 81ae      	LDD  R26,Y+6
0008e9 81bf      	LDD  R27,Y+6+1
0008ea 9611      	ADIW R26,1
0008eb 83ae      	STD  Y+6,R26
0008ec 83bf      	STD  Y+6+1,R27
0008ed 9711      	SBIW R26,1
0008ee e2ed      	LDI  R30,LOW(45)
0008ef 93ec      	ST   X,R30
                 _0x2020003:
                 _0x2020005:
                +
0008f0 81ea     +LDD R30 , Y + 2
0008f1 81fb     +LDD R31 , Y + 2 + 1
0008f2 816c     +LDD R22 , Y + 2 + 2
0008f3 817d     +LDD R23 , Y + 2 + 3
                 	__GETD1S 2
                +
0008f4 85a8     +LDD R26 , Y + 8
0008f5 85b9     +LDD R27 , Y + 8 + 1
0008f6 858a     +LDD R24 , Y + 8 + 2
0008f7 859b     +LDD R25 , Y + 8 + 3
                 	__GETD2S 8
0008f8 d372      	RCALL __DIVD21U
0008f9 2f1e      	MOV  R17,R30
0008fa 3010      	CPI  R17,0
0008fb f471      	BRNE _0x2020008
0008fc 3000      	CPI  R16,0
0008fd f461      	BRNE _0x2020008
                +
0008fe 81aa     +LDD R26 , Y + 2
0008ff 81bb     +LDD R27 , Y + 2 + 1
000900 818c     +LDD R24 , Y + 2 + 2
000901 819d     +LDD R25 , Y + 2 + 3
                 	__GETD2S 2
                +
000902 30a1     +CPI R26 , LOW ( 0x1 )
000903 e0e0     +LDI R30 , HIGH ( 0x1 )
000904 07be     +CPC R27 , R30
000905 e0e0     +LDI R30 , BYTE3 ( 0x1 )
000906 078e     +CPC R24 , R30
000907 e0e0     +LDI R30 , BYTE4 ( 0x1 )
000908 079e     +CPC R25 , R30
                 	__CPD2N 0x1
000909 f451      	BRNE _0x2020007
                 _0x2020008:
00090a 81ae      	LDD  R26,Y+6
00090b 81bf      	LDD  R27,Y+6+1
00090c 9611      	ADIW R26,1
00090d 83ae      	STD  Y+6,R26
00090e 83bf      	STD  Y+6+1,R27
00090f 9711      	SBIW R26,1
000910 2fe1      	MOV  R30,R17
000911 5de0      	SUBI R30,-LOW(48)
000912 93ec      	ST   X,R30
000913 e001      	LDI  R16,LOW(1)
                 _0x2020007:
                +
000914 81ea     +LDD R30 , Y + 2
000915 81fb     +LDD R31 , Y + 2 + 1
000916 816c     +LDD R22 , Y + 2 + 2
000917 817d     +LDD R23 , Y + 2 + 3
                 	__GETD1S 2
                +
000918 85a8     +LDD R26 , Y + 8
000919 85b9     +LDD R27 , Y + 8 + 1
00091a 858a     +LDD R24 , Y + 8 + 2
00091b 859b     +LDD R25 , Y + 8 + 3
                 	__GETD2S 8
00091c d373      	RCALL __MODD21U
                +
00091d 87e8     +STD Y + 8 , R30
00091e 87f9     +STD Y + 8 + 1 , R31
00091f 876a     +STD Y + 8 + 2 , R22
000920 877b     +STD Y + 8 + 3 , R23
                 	__PUTD1S 8
                +
000921 81aa     +LDD R26 , Y + 2
000922 81bb     +LDD R27 , Y + 2 + 1
000923 818c     +LDD R24 , Y + 2 + 2
000924 819d     +LDD R25 , Y + 2 + 3
                 	__GETD2S 2
                +
000925 e0ea     +LDI R30 , LOW ( 0xA )
000926 e0f0     +LDI R31 , HIGH ( 0xA )
000927 e060     +LDI R22 , BYTE3 ( 0xA )
000928 e070     +LDI R23 , BYTE4 ( 0xA )
                 	__GETD1N 0xA
000929 d341      	RCALL __DIVD21U
                +
00092a 83ea     +STD Y + 2 , R30
00092b 83fb     +STD Y + 2 + 1 , R31
00092c 836c     +STD Y + 2 + 2 , R22
00092d 837d     +STD Y + 2 + 3 , R23
                 	__PUTD1S 2
00092e d39b      	RCALL __CPD10
00092f f009      	BREQ _0x2020006
000930 cfbf      	RJMP _0x2020005
                 _0x2020006:
000931 81ae      	LDD  R26,Y+6
000932 81bf      	LDD  R27,Y+6+1
000933 e0e0      	LDI  R30,LOW(0)
000934 93ec      	ST   X,R30
000935 d3a4      	RCALL __LOADLOCR2
000936 962c      	ADIW R28,12
000937 9508      	RET
                 
                 	.DSEG
                 
                 	.CSEG
                 
                 	.CSEG
                 _ds18b20_select:
000938 931a      	ST   -Y,R17
000939 d1be      	RCALL _w1_init
00093a 30e0      	CPI  R30,0
00093b f419      	BRNE _0x2040003
00093c e0e0      	LDI  R30,LOW(0)
00093d 8118      	LDD  R17,Y+0
00093e c0f9      	RJMP _0x20E0002
                 _0x2040003:
00093f 81e9      	LDD  R30,Y+1
000940 81fa      	LDD  R31,Y+1+1
000941 9730      	SBIW R30,0
000942 f079      	BREQ _0x2040004
000943 e5e5      	LDI  R30,LOW(85)
000944 93ea      	ST   -Y,R30
000945 d1f8      	RCALL _w1_write
000946 e010      	LDI  R17,LOW(0)
                 _0x2040006:
000947 81a9      	LDD  R26,Y+1
000948 81ba      	LDD  R27,Y+1+1
000949 91ed      	LD   R30,X+
00094a 83a9      	STD  Y+1,R26
00094b 83ba      	STD  Y+1+1,R27
00094c 93ea      	ST   -Y,R30
00094d d1f0      	RCALL _w1_write
00094e 5f1f      	SUBI R17,-LOW(1)
00094f 3018      	CPI  R17,8
000950 f3b0      	BRLO _0x2040006
000951 c003      	RJMP _0x2040008
                 _0x2040004:
000952 ecec      	LDI  R30,LOW(204)
000953 93ea      	ST   -Y,R30
000954 d1e9      	RCALL _w1_write
                 _0x2040008:
000955 e0e1      	LDI  R30,LOW(1)
000956 8118      	LDD  R17,Y+0
000957 c0e0      	RJMP _0x20E0002
                 _ds18b20_read_spd:
000958 d37a      	RCALL __SAVELOCR4
000959 81ec      	LDD  R30,Y+4
00095a 81fd      	LDD  R31,Y+4+1
00095b 93fa      	ST   -Y,R31
00095c 93ea      	ST   -Y,R30
00095d dfda      	RCALL _ds18b20_select
00095e 30e0      	CPI  R30,0
00095f f419      	BRNE _0x2040009
000960 e0e0      	LDI  R30,LOW(0)
000961 d376      	RCALL __LOADLOCR4
000962 c0fb      	RJMP _0x20E0001
                 _0x2040009:
000963 ebee      	LDI  R30,LOW(190)
000964 93ea      	ST   -Y,R30
000965 d1d8      	RCALL _w1_write
000966 e010      	LDI  R17,LOW(0)
                +
000967 ed2e     +LDI R18 , LOW ( ___ds18b20_scratch_pad )
000968 e032     +LDI R19 , HIGH ( ___ds18b20_scratch_pad )
                 	__POINTWRM 18,19,___ds18b20_scratch_pad
                 _0x204000B:
000969 933f      	PUSH R19
00096a 932f      	PUSH R18
                +
00096b 5f2f     +SUBI R18 , LOW ( - 1 )
00096c 4f3f     +SBCI R19 , HIGH ( - 1 )
                 	__ADDWRN 18,19,1
00096d d1cb      	RCALL _w1_read
00096e 91af      	POP  R26
00096f 91bf      	POP  R27
000970 93ec      	ST   X,R30
000971 5f1f      	SUBI R17,-LOW(1)
000972 3019      	CPI  R17,9
000973 f3a8      	BRLO _0x204000B
000974 edee      	LDI  R30,LOW(___ds18b20_scratch_pad)
000975 e0f2      	LDI  R31,HIGH(___ds18b20_scratch_pad)
000976 93fa      	ST   -Y,R31
000977 93ea      	ST   -Y,R30
000978 e0e9      	LDI  R30,LOW(9)
000979 93ea      	ST   -Y,R30
00097a d1cd      	RCALL _w1_dow_crc8
00097b d2e2      	RCALL __LNEGB1
00097c d35b      	RCALL __LOADLOCR4
00097d c0e0      	RJMP _0x20E0001
                 _ds18b20_temperature:
00097e 931a      	ST   -Y,R17
00097f 81e9      	LDD  R30,Y+1
000980 81fa      	LDD  R31,Y+1+1
000981 93fa      	ST   -Y,R31
000982 93ea      	ST   -Y,R30
000983 dfd4      	RCALL _ds18b20_read_spd
000984 30e0      	CPI  R30,0
000985 f431      	BRNE _0x204000D
                +
000986 e0e0     +LDI R30 , LOW ( 0xC61C3C00 )
000987 e3fc     +LDI R31 , HIGH ( 0xC61C3C00 )
000988 e16c     +LDI R22 , BYTE3 ( 0xC61C3C00 )
000989 ec76     +LDI R23 , BYTE4 ( 0xC61C3C00 )
                 	__GETD1N 0xC61C3C00
00098a 8118      	LDD  R17,Y+0
00098b c0ac      	RJMP _0x20E0002
                 _0x204000D:
                +
00098c 91a0 02e2+LDS R26 , ___ds18b20_scratch_pad + ( 4 )
                 	__GETB2MN ___ds18b20_scratch_pad,4
00098e e0b0      	LDI  R27,0
00098f e0e5      	LDI  R30,LOW(5)
000990 d2bf      	RCALL __ASRW12
000991 70e3      	ANDI R30,LOW(0x3)
000992 2f1e      	MOV  R17,R30
000993 81e9      	LDD  R30,Y+1
000994 81fa      	LDD  R31,Y+1+1
000995 93fa      	ST   -Y,R31
000996 93ea      	ST   -Y,R30
000997 dfa0      	RCALL _ds18b20_select
000998 30e0      	CPI  R30,0
000999 f431      	BRNE _0x204000E
                +
00099a e0e0     +LDI R30 , LOW ( 0xC61C3C00 )
00099b e3fc     +LDI R31 , HIGH ( 0xC61C3C00 )
00099c e16c     +LDI R22 , BYTE3 ( 0xC61C3C00 )
00099d ec76     +LDI R23 , BYTE4 ( 0xC61C3C00 )
                 	__GETD1N 0xC61C3C00
00099e 8118      	LDD  R17,Y+0
00099f c098      	RJMP _0x20E0002
                 _0x204000E:
0009a0 e4e4      	LDI  R30,LOW(68)
0009a1 93ea      	ST   -Y,R30
0009a2 d19b      	RCALL _w1_write
0009a3 2fe1      	MOV  R30,R17
0009a4 e8ac      	LDI  R26,LOW(_conv_delay_G102*2)
0009a5 e0b4      	LDI  R27,HIGH(_conv_delay_G102*2)
0009a6 e0f0      	LDI  R31,0
0009a7 0fee      	LSL  R30
0009a8 1fff      	ROL  R31
0009a9 0fea      	ADD  R30,R26
0009aa 1ffb      	ADC  R31,R27
0009ab d2ec      	RCALL __GETW1PF
0009ac 93fa      	ST   -Y,R31
0009ad 93ea      	ST   -Y,R30
0009ae d13d      	RCALL _delay_ms
0009af 81e9      	LDD  R30,Y+1
0009b0 81fa      	LDD  R31,Y+1+1
0009b1 93fa      	ST   -Y,R31
0009b2 93ea      	ST   -Y,R30
0009b3 dfa4      	RCALL _ds18b20_read_spd
0009b4 30e0      	CPI  R30,0
0009b5 f431      	BRNE _0x204000F
                +
0009b6 e0e0     +LDI R30 , LOW ( 0xC61C3C00 )
0009b7 e3fc     +LDI R31 , HIGH ( 0xC61C3C00 )
0009b8 e16c     +LDI R22 , BYTE3 ( 0xC61C3C00 )
0009b9 ec76     +LDI R23 , BYTE4 ( 0xC61C3C00 )
                 	__GETD1N 0xC61C3C00
0009ba 8118      	LDD  R17,Y+0
0009bb c07c      	RJMP _0x20E0002
                 _0x204000F:
0009bc d13b      	RCALL _w1_init
0009bd 2fe1      	MOV  R30,R17
0009be e9a4      	LDI  R26,LOW(_bit_mask_G102*2)
0009bf e0b4      	LDI  R27,HIGH(_bit_mask_G102*2)
0009c0 e0f0      	LDI  R31,0
0009c1 0fee      	LSL  R30
0009c2 1fff      	ROL  R31
0009c3 0fea      	ADD  R30,R26
0009c4 1ffb      	ADC  R31,R27
0009c5 d2d2      	RCALL __GETW1PF
0009c6 91a0 02de 	LDS  R26,___ds18b20_scratch_pad
0009c8 91b0 02df 	LDS  R27,___ds18b20_scratch_pad+1
0009ca 23ea      	AND  R30,R26
0009cb 23fb      	AND  R31,R27
0009cc d28c      	RCALL __CWD1
0009cd d1f6      	RCALL __CDF1
                +
0009ce e0a0     +LDI R26 , LOW ( 0x3D800000 )
0009cf e0b0     +LDI R27 , HIGH ( 0x3D800000 )
0009d0 e880     +LDI R24 , BYTE3 ( 0x3D800000 )
0009d1 e39d     +LDI R25 , BYTE4 ( 0x3D800000 )
                 	__GETD2N 0x3D800000
0009d2 d21f      	RCALL __MULF12
0009d3 8118      	LDD  R17,Y+0
0009d4 c063      	RJMP _0x20E0002
                 _ds18b20_init:
0009d5 81eb      	LDD  R30,Y+3
0009d6 81fc      	LDD  R31,Y+3+1
0009d7 93fa      	ST   -Y,R31
0009d8 93ea      	ST   -Y,R30
0009d9 df5e      	RCALL _ds18b20_select
0009da 30e0      	CPI  R30,0
0009db f411      	BRNE _0x2040010
0009dc e0e0      	LDI  R30,LOW(0)
0009dd c03e      	RJMP _0x20E0003
                 _0x2040010:
0009de 81e8      	LD   R30,Y
0009df 95e2      	SWAP R30
0009e0 7fe0      	ANDI R30,0xF0
0009e1 0fee      	LSL  R30
0009e2 61ef      	ORI  R30,LOW(0x1F)
0009e3 83e8      	ST   Y,R30
0009e4 e4ee      	LDI  R30,LOW(78)
0009e5 93ea      	ST   -Y,R30
0009e6 d157      	RCALL _w1_write
0009e7 81e9      	LDD  R30,Y+1
0009e8 93ea      	ST   -Y,R30
0009e9 d154      	RCALL _w1_write
0009ea 81ea      	LDD  R30,Y+2
0009eb 93ea      	ST   -Y,R30
0009ec d151      	RCALL _w1_write
0009ed 81e8      	LD   R30,Y
0009ee 93ea      	ST   -Y,R30
0009ef d14e      	RCALL _w1_write
0009f0 81eb      	LDD  R30,Y+3
0009f1 81fc      	LDD  R31,Y+3+1
0009f2 93fa      	ST   -Y,R31
0009f3 93ea      	ST   -Y,R30
0009f4 df63      	RCALL _ds18b20_read_spd
0009f5 30e0      	CPI  R30,0
0009f6 f411      	BRNE _0x2040011
0009f7 e0e0      	LDI  R30,LOW(0)
0009f8 c023      	RJMP _0x20E0003
                 _0x2040011:
                +
0009f9 91a0 02e1+LDS R26 , ___ds18b20_scratch_pad + ( 3 )
                 	__GETB2MN ___ds18b20_scratch_pad,3
0009fb 81ea      	LDD  R30,Y+2
0009fc 17ea      	CP   R30,R26
0009fd f451      	BRNE _0x2040013
                +
0009fe 91a0 02e0+LDS R26 , ___ds18b20_scratch_pad + ( 2 )
                 	__GETB2MN ___ds18b20_scratch_pad,2
000a00 81e9      	LDD  R30,Y+1
000a01 17ea      	CP   R30,R26
000a02 f429      	BRNE _0x2040013
                +
000a03 91a0 02e2+LDS R26 , ___ds18b20_scratch_pad + ( 4 )
                 	__GETB2MN ___ds18b20_scratch_pad,4
000a05 81e8      	LD   R30,Y
000a06 17ea      	CP   R30,R26
000a07 f011      	BREQ _0x2040012
                 _0x2040013:
000a08 e0e0      	LDI  R30,LOW(0)
000a09 c012      	RJMP _0x20E0003
                 _0x2040012:
000a0a 81eb      	LDD  R30,Y+3
000a0b 81fc      	LDD  R31,Y+3+1
000a0c 93fa      	ST   -Y,R31
000a0d 93ea      	ST   -Y,R30
000a0e df29      	RCALL _ds18b20_select
000a0f 30e0      	CPI  R30,0
000a10 f411      	BRNE _0x2040015
000a11 e0e0      	LDI  R30,LOW(0)
000a12 c009      	RJMP _0x20E0003
                 _0x2040015:
000a13 e4e8      	LDI  R30,LOW(72)
000a14 93ea      	ST   -Y,R30
000a15 d128      	RCALL _w1_write
000a16 e0ef      	LDI  R30,LOW(15)
000a17 e0f0      	LDI  R31,HIGH(15)
000a18 93fa      	ST   -Y,R31
000a19 93ea      	ST   -Y,R30
000a1a d0d1      	RCALL _delay_ms
000a1b d0dc      	RCALL _w1_init
                 _0x20E0003:
000a1c 9625      	ADIW R28,5
000a1d 9508      	RET
                 
                 	.CSEG
                 _rtc_init:
000a1e 81ea      	LDD  R30,Y+2
000a1f 70e3      	ANDI R30,LOW(0x3)
000a20 83ea      	STD  Y+2,R30
000a21 81e9      	LDD  R30,Y+1
000a22 30e0      	CPI  R30,0
000a23 f019      	BREQ _0x2060003
000a24 81ea      	LDD  R30,Y+2
000a25 61e0      	ORI  R30,0x10
000a26 83ea      	STD  Y+2,R30
                 _0x2060003:
000a27 81e8      	LD   R30,Y
000a28 30e0      	CPI  R30,0
000a29 f019      	BREQ _0x2060004
000a2a 81ea      	LDD  R30,Y+2
000a2b 68e0      	ORI  R30,0x80
000a2c 83ea      	STD  Y+2,R30
                 _0x2060004:
000a2d d071      	RCALL _i2c_start
000a2e ede0      	LDI  R30,LOW(208)
000a2f 93ea      	ST   -Y,R30
000a30 d0a2      	RCALL _i2c_write
000a31 e0e7      	LDI  R30,LOW(7)
000a32 93ea      	ST   -Y,R30
000a33 d09f      	RCALL _i2c_write
000a34 81ea      	LDD  R30,Y+2
000a35 93ea      	ST   -Y,R30
000a36 d09c      	RCALL _i2c_write
000a37 d076      	RCALL _i2c_stop
                 _0x20E0002:
000a38 9623      	ADIW R28,3
000a39 9508      	RET
                 _rtc_get_time:
000a3a d064      	RCALL _i2c_start
000a3b ede0      	LDI  R30,LOW(208)
000a3c 93ea      	ST   -Y,R30
000a3d d095      	RCALL _i2c_write
000a3e e0e0      	LDI  R30,LOW(0)
000a3f 93ea      	ST   -Y,R30
000a40 d092      	RCALL _i2c_write
000a41 d05d      	RCALL _i2c_start
000a42 ede1      	LDI  R30,LOW(209)
000a43 93ea      	ST   -Y,R30
000a44 d08e      	RCALL _i2c_write
000a45 e0e1      	LDI  R30,LOW(1)
000a46 93ea      	ST   -Y,R30
000a47 d070      	RCALL _i2c_read
000a48 93ea      	ST   -Y,R30
000a49 d044      	RCALL _bcd2bin
000a4a 81a8      	LD   R26,Y
000a4b 81b9      	LDD  R27,Y+1
000a4c 93ec      	ST   X,R30
000a4d e0e1      	LDI  R30,LOW(1)
000a4e 93ea      	ST   -Y,R30
000a4f d068      	RCALL _i2c_read
000a50 93ea      	ST   -Y,R30
000a51 d03c      	RCALL _bcd2bin
000a52 81aa      	LDD  R26,Y+2
000a53 81bb      	LDD  R27,Y+2+1
000a54 93ec      	ST   X,R30
000a55 e0e0      	LDI  R30,LOW(0)
000a56 93ea      	ST   -Y,R30
000a57 d060      	RCALL _i2c_read
000a58 93ea      	ST   -Y,R30
000a59 d034      	RCALL _bcd2bin
000a5a 81ac      	LDD  R26,Y+4
000a5b 81bd      	LDD  R27,Y+4+1
000a5c 93ec      	ST   X,R30
000a5d d050      	RCALL _i2c_stop
                 _0x20E0001:
000a5e 9626      	ADIW R28,6
000a5f 9508      	RET
                 _rtc_get_date:
000a60 d03e      	RCALL _i2c_start
000a61 ede0      	LDI  R30,LOW(208)
000a62 93ea      	ST   -Y,R30
000a63 d06f      	RCALL _i2c_write
000a64 e0e3      	LDI  R30,LOW(3)
000a65 93ea      	ST   -Y,R30
000a66 d06c      	RCALL _i2c_write
000a67 d037      	RCALL _i2c_start
000a68 ede1      	LDI  R30,LOW(209)
000a69 93ea      	ST   -Y,R30
000a6a d068      	RCALL _i2c_write
000a6b e0e1      	LDI  R30,LOW(1)
000a6c 93ea      	ST   -Y,R30
000a6d d04a      	RCALL _i2c_read
000a6e 93ea      	ST   -Y,R30
000a6f d01e      	RCALL _bcd2bin
000a70 81ae      	LDD  R26,Y+6
000a71 81bf      	LDD  R27,Y+6+1
000a72 93ec      	ST   X,R30
000a73 e0e1      	LDI  R30,LOW(1)
000a74 93ea      	ST   -Y,R30
000a75 d042      	RCALL _i2c_read
000a76 93ea      	ST   -Y,R30
000a77 d016      	RCALL _bcd2bin
000a78 81ac      	LDD  R26,Y+4
000a79 81bd      	LDD  R27,Y+4+1
000a7a 93ec      	ST   X,R30
000a7b e0e1      	LDI  R30,LOW(1)
000a7c 93ea      	ST   -Y,R30
000a7d d03a      	RCALL _i2c_read
000a7e 93ea      	ST   -Y,R30
000a7f d00e      	RCALL _bcd2bin
000a80 81aa      	LDD  R26,Y+2
000a81 81bb      	LDD  R27,Y+2+1
000a82 93ec      	ST   X,R30
000a83 e0e0      	LDI  R30,LOW(0)
000a84 93ea      	ST   -Y,R30
000a85 d032      	RCALL _i2c_read
000a86 93ea      	ST   -Y,R30
000a87 d006      	RCALL _bcd2bin
000a88 81a8      	LD   R26,Y
000a89 81b9      	LDD  R27,Y+1
000a8a 93ec      	ST   X,R30
000a8b d022      	RCALL _i2c_stop
000a8c 9628      	ADIW R28,8
000a8d 9508      	RET
                 
                 	.CSEG
                 
                 	.CSEG
                 
                 	.CSEG
                 _bcd2bin:
000a8e 81e8          ld   r30,y
000a8f 95e2          swap r30
000a90 70ef          andi r30,0xf
000a91 2fae          mov  r26,r30
000a92 0faa          lsl  r26
000a93 0faa          lsl  r26
000a94 0fea          add  r30,r26
000a95 0fee          lsl  r30
000a96 91a9          ld   r26,y+
000a97 70af          andi r26,0xf
000a98 0fea          add  r30,r26
000a99 9508          ret
                 
                 	.DSEG
                 ___ds18b20_scratch_pad:
0002de           	.BYTE 0x9
                 
                 	.ESEG
                 _OCRA:
000000           	.BYTE 0x2
                 _OCRB:
000002           	.BYTE 0x2
                 
                 	.DSEG
                 _RC5_DATA:
0002e7           	.BYTE 0x2
                 _counter:
0002e9           	.BYTE 0x2
                 _step:
0002eb           	.BYTE 0x1
                 _step2:
0002ec           	.BYTE 0x1
                 _buf:
0002ed           	.BYTE 0x50
                 _buf2:
00033d           	.BYTE 0x50
                 _buffer:
00038d           	.BYTE 0x50
                 _digbuf:
0003dd           	.BYTE 0xC
                 _i:
0003e9           	.BYTE 0x1
                 _month:
0003ea           	.BYTE 0x18
                 _week:
000402           	.BYTE 0xE
                 _t:
000410           	.BYTE 0x7
                 __seed_G101:
000417           	.BYTE 0x4
                 
                 	.CSEG
                 
                 	.CSEG
                 	.equ __i2c_dir=__i2c_port-1
                 	.equ __i2c_pin=__i2c_port-2
                 _i2c_init:
000a9a 98a8      	cbi  __i2c_port,__scl_bit
000a9b 98a9      	cbi  __i2c_port,__sda_bit
000a9c 9aa0      	sbi  __i2c_dir,__scl_bit
000a9d 98a1      	cbi  __i2c_dir,__sda_bit
000a9e c015      	rjmp __i2c_delay2
                 _i2c_start:
000a9f 98a1      	cbi  __i2c_dir,__sda_bit
000aa0 98a0      	cbi  __i2c_dir,__scl_bit
000aa1 27ee      	clr  r30
000aa2 0000      	nop
000aa3 9b99      	sbis __i2c_pin,__sda_bit
000aa4 9508      	ret
000aa5 9b98      	sbis __i2c_pin,__scl_bit
000aa6 9508      	ret
000aa7 d004      	rcall __i2c_delay1
000aa8 9aa1      	sbi  __i2c_dir,__sda_bit
000aa9 d002      	rcall __i2c_delay1
000aaa 9aa0      	sbi  __i2c_dir,__scl_bit
000aab e0e1      	ldi  r30,1
                 __i2c_delay1:
000aac e067      	ldi  r22,7
000aad c007      	rjmp __i2c_delay2l
                 _i2c_stop:
000aae 9aa1      	sbi  __i2c_dir,__sda_bit
000aaf 9aa0      	sbi  __i2c_dir,__scl_bit
000ab0 d003      	rcall __i2c_delay2
000ab1 98a0      	cbi  __i2c_dir,__scl_bit
000ab2 dff9      	rcall __i2c_delay1
000ab3 98a1      	cbi  __i2c_dir,__sda_bit
                 __i2c_delay2:
000ab4 e06d      	ldi  r22,13
                 __i2c_delay2l:
000ab5 956a      	dec  r22
000ab6 f7f1      	brne __i2c_delay2l
000ab7 9508      	ret
                 _i2c_read:
000ab8 e078      	ldi  r23,8
                 __i2c_read0:
000ab9 98a0      	cbi  __i2c_dir,__scl_bit
000aba dff1      	rcall __i2c_delay1
                 __i2c_read3:
000abb 9b98      	sbis __i2c_pin,__scl_bit
000abc cffe      	rjmp __i2c_read3
000abd dfee      	rcall __i2c_delay1
000abe 9488      	clc
000abf 9999      	sbic __i2c_pin,__sda_bit
000ac0 9408      	sec
000ac1 9aa0      	sbi  __i2c_dir,__scl_bit
000ac2 dff1      	rcall __i2c_delay2
000ac3 1fee      	rol  r30
000ac4 957a      	dec  r23
000ac5 f799      	brne __i2c_read0
000ac6 9179      	ld   r23,y+
000ac7 2377      	tst  r23
000ac8 f411      	brne __i2c_read1
000ac9 98a1      	cbi  __i2c_dir,__sda_bit
000aca c001      	rjmp __i2c_read2
                 __i2c_read1:
000acb 9aa1      	sbi  __i2c_dir,__sda_bit
                 __i2c_read2:
000acc dfdf      	rcall __i2c_delay1
000acd 98a0      	cbi  __i2c_dir,__scl_bit
000ace dfe5      	rcall __i2c_delay2
000acf 9aa0      	sbi  __i2c_dir,__scl_bit
000ad0 dfdb      	rcall __i2c_delay1
000ad1 98a1      	cbi  __i2c_dir,__sda_bit
000ad2 cfd9      	rjmp __i2c_delay1
                 
                 _i2c_write:
000ad3 91e9      	ld   r30,y+
000ad4 e078      	ldi  r23,8
                 __i2c_write0:
000ad5 0fee      	lsl  r30
000ad6 f410      	brcc __i2c_write1
000ad7 98a1      	cbi  __i2c_dir,__sda_bit
000ad8 c001      	rjmp __i2c_write2
                 __i2c_write1:
000ad9 9aa1      	sbi  __i2c_dir,__sda_bit
                 __i2c_write2:
000ada dfd9      	rcall __i2c_delay2
000adb 98a0      	cbi  __i2c_dir,__scl_bit
000adc dfcf      	rcall __i2c_delay1
                 __i2c_write3:
000add 9b98      	sbis __i2c_pin,__scl_bit
000ade cffe      	rjmp __i2c_write3
000adf dfcc      	rcall __i2c_delay1
000ae0 9aa0      	sbi  __i2c_dir,__scl_bit
000ae1 957a      	dec  r23
000ae2 f791      	brne __i2c_write0
000ae3 98a1      	cbi  __i2c_dir,__sda_bit
000ae4 dfc7      	rcall __i2c_delay1
000ae5 98a0      	cbi  __i2c_dir,__scl_bit
000ae6 dfcd      	rcall __i2c_delay2
000ae7 e0e1      	ldi  r30,1
000ae8 9999      	sbic __i2c_pin,__sda_bit
000ae9 27ee      	clr  r30
000aea 9aa0      	sbi  __i2c_dir,__scl_bit
000aeb cfc0      	rjmp __i2c_delay1
                 
                 _delay_ms:
000aec 91e9      	ld   r30,y+
000aed 91f9      	ld   r31,y+
000aee 9630      	adiw r30,0
000aef f039      	breq __delay_ms1
                 __delay_ms0:
                +
000af0 ee88     +LDI R24 , LOW ( 0x3E8 )
000af1 e093     +LDI R25 , HIGH ( 0x3E8 )
                +__DELAY_USW_LOOP :
000af2 9701     +SBIW R24 , 1
000af3 f7f1     +BRNE __DELAY_USW_LOOP
                 	__DELAY_USW 0x3E8
000af4 95a8      	wdr
000af5 9731      	sbiw r30,1
000af6 f7c9      	brne __delay_ms0
                 __delay_ms1:
000af7 9508      	ret
                 
                 	.equ __w1_port=0x15
                 	.equ __w1_bit=0x02
                 
                 _w1_init:
000af8 27ee      	clr  r30
000af9 98aa      	cbi  __w1_port,__w1_bit
000afa 9aa2      	sbi  __w1_port-1,__w1_bit
                +
000afb ee80     +LDI R24 , LOW ( 0x1E0 )
000afc e091     +LDI R25 , HIGH ( 0x1E0 )
                +__DELAY_USW_LOOP :
000afd 9701     +SBIW R24 , 1
000afe f7f1     +BRNE __DELAY_USW_LOOP
                 	__DELAY_USW 0x1E0
000aff 98a2      	cbi  __w1_port-1,__w1_bit
                +
000b00 e183     +LDI R24 , LOW ( 0x13 )
                +__DELAY_USB_LOOP :
000b01 958a     +DEC R24
000b02 f7f1     +BRNE __DELAY_USB_LOOP
                 	__DELAY_USB 0x13
000b03 9b9a      	sbis __w1_port-2,__w1_bit
000b04 9508      	ret
                +
000b05 e685     +LDI R24 , LOW ( 0x65 )
                +__DELAY_USB_LOOP :
000b06 958a     +DEC R24
000b07 f7f1     +BRNE __DELAY_USB_LOOP
                 	__DELAY_USB 0x65
000b08 9b9a      	sbis __w1_port-2,__w1_bit
000b09 e0e1      	ldi  r30,1
                +
000b0a e886     +LDI R24 , LOW ( 0x186 )
000b0b e091     +LDI R25 , HIGH ( 0x186 )
                +__DELAY_USW_LOOP :
000b0c 9701     +SBIW R24 , 1
000b0d f7f1     +BRNE __DELAY_USW_LOOP
                 	__DELAY_USW 0x186
000b0e 9508      	ret
                 
                 __w1_read_bit:
000b0f 9aa2      	sbi  __w1_port-1,__w1_bit
                +
000b10 e083     +LDI R24 , LOW ( 0x3 )
                +__DELAY_USB_LOOP :
000b11 958a     +DEC R24
000b12 f7f1     +BRNE __DELAY_USB_LOOP
                 	__DELAY_USB 0x3
000b13 98a2      	cbi  __w1_port-1,__w1_bit
                +
000b14 e08f     +LDI R24 , LOW ( 0xF )
                +__DELAY_USB_LOOP :
000b15 958a     +DEC R24
000b16 f7f1     +BRNE __DELAY_USB_LOOP
                 	__DELAY_USB 0xF
000b17 9488      	clc
000b18 999a      	sbic __w1_port-2,__w1_bit
000b19 9408      	sec
000b1a 95e7      	ror  r30
                +
000b1b e68b     +LDI R24 , LOW ( 0x6B )
                +__DELAY_USB_LOOP :
000b1c 958a     +DEC R24
000b1d f7f1     +BRNE __DELAY_USB_LOOP
                 	__DELAY_USB 0x6B
000b1e 9508      	ret
                 
                 __w1_write_bit:
000b1f 94e8      	clt
000b20 9aa2      	sbi  __w1_port-1,__w1_bit
                +
000b21 e083     +LDI R24 , LOW ( 0x3 )
                +__DELAY_USB_LOOP :
000b22 958a     +DEC R24
000b23 f7f1     +BRNE __DELAY_USB_LOOP
                 	__DELAY_USB 0x3
000b24 fd70      	sbrc r23,0
000b25 98a2      	cbi  __w1_port-1,__w1_bit
                +
000b26 e181     +LDI R24 , LOW ( 0x11 )
                +__DELAY_USB_LOOP :
000b27 958a     +DEC R24
000b28 f7f1     +BRNE __DELAY_USB_LOOP
                 	__DELAY_USB 0x11
000b29 999a      	sbic __w1_port-2,__w1_bit
000b2a c003      	rjmp __w1_write_bit0
000b2b ff70      	sbrs r23,0
000b2c c003      	rjmp __w1_write_bit1
000b2d 9508      	ret
                 __w1_write_bit0:
000b2e ff70      	sbrs r23,0
000b2f 9508      	ret
                 __w1_write_bit1:
                +
000b30 e684     +LDI R24 , LOW ( 0x64 )
                +__DELAY_USB_LOOP :
000b31 958a     +DEC R24
000b32 f7f1     +BRNE __DELAY_USB_LOOP
                 	__DELAY_USB 0x64
000b33 98a2      	cbi  __w1_port-1,__w1_bit
                +
000b34 e087     +LDI R24 , LOW ( 0x7 )
                +__DELAY_USB_LOOP :
000b35 958a     +DEC R24
000b36 f7f1     +BRNE __DELAY_USB_LOOP
                 	__DELAY_USB 0x7
000b37 9468      	set
000b38 9508      	ret
                 
                 _w1_read:
000b39 e068      	ldi  r22,8
                 	__w1_read0:
000b3a dfd4      	rcall __w1_read_bit
000b3b 956a      	dec  r22
000b3c f7e9      	brne __w1_read0
000b3d 9508      	ret
                 
                 _w1_write:
000b3e e068      	ldi  r22,8
000b3f 9179      	ld   r23,y+
000b40 27ee      	clr  r30
                 __w1_write0:
000b41 dfdd      	rcall __w1_write_bit
000b42 f426      	brtc __w1_write1
000b43 9577      	ror  r23
000b44 956a      	dec  r22
000b45 f7d9      	brne __w1_write0
000b46 95e3      	inc  r30
                 __w1_write1:
000b47 9508      	ret
                 
                 _w1_dow_crc8:
000b48 27ee      	clr  r30
000b49 8188      	ld   r24,y
000b4a 2388      	tst  r24
000b4b f081      	breq __w1_dow_crc83
000b4c e168      	ldi  r22,0x18
000b4d 81a9      	ldd  r26,y+1
000b4e 81ba      	ldd  r27,y+2
                 __w1_dow_crc80:
000b4f e098      	ldi  r25,8
000b50 91fd      	ld   r31,x+
                 __w1_dow_crc81:
000b51 2f7f      	mov  r23,r31
000b52 277e      	eor  r23,r30
000b53 9577      	ror  r23
000b54 f408      	brcc __w1_dow_crc82
000b55 27e6      	eor  r30,r22
                 __w1_dow_crc82:
000b56 95e7      	ror  r30
000b57 95f6      	lsr  r31
000b58 959a      	dec  r25
000b59 f7b9      	brne __w1_dow_crc81
000b5a 958a      	dec  r24
000b5b f799      	brne __w1_dow_crc80
                 __w1_dow_crc83:
000b5c 9623      	adiw r28,3
000b5d 9508      	ret
                 
                 __ROUND_REPACK:
000b5e 2355      	TST  R21
000b5f f442      	BRPL __REPACK
000b60 3850      	CPI  R21,0x80
000b61 f411      	BRNE __ROUND_REPACK0
000b62 ffe0      	SBRS R30,0
000b63 c004      	RJMP __REPACK
                 __ROUND_REPACK0:
000b64 9631      	ADIW R30,1
000b65 1f69      	ADC  R22,R25
000b66 1f79      	ADC  R23,R25
000b67 f06b      	BRVS __REPACK1
                 
                 __REPACK:
000b68 e850      	LDI  R21,0x80
000b69 2757      	EOR  R21,R23
000b6a f411      	BRNE __REPACK0
000b6b 935f      	PUSH R21
000b6c c073      	RJMP __ZERORES
                 __REPACK0:
000b6d 3f5f      	CPI  R21,0xFF
000b6e f031      	BREQ __REPACK1
000b6f 0f66      	LSL  R22
000b70 0c00      	LSL  R0
000b71 9557      	ROR  R21
000b72 9567      	ROR  R22
000b73 2f75      	MOV  R23,R21
000b74 9508      	RET
                 __REPACK1:
000b75 935f      	PUSH R21
000b76 2000      	TST  R0
000b77 f00a      	BRMI __REPACK2
000b78 c073      	RJMP __MAXRES
                 __REPACK2:
000b79 c06c      	RJMP __MINRES
                 
                 __UNPACK:
000b7a e850      	LDI  R21,0x80
000b7b 2e19      	MOV  R1,R25
000b7c 2215      	AND  R1,R21
000b7d 0f88      	LSL  R24
000b7e 1f99      	ROL  R25
000b7f 2795      	EOR  R25,R21
000b80 0f55      	LSL  R21
000b81 9587      	ROR  R24
                 
                 __UNPACK1:
000b82 e850      	LDI  R21,0x80
000b83 2e07      	MOV  R0,R23
000b84 2205      	AND  R0,R21
000b85 0f66      	LSL  R22
000b86 1f77      	ROL  R23
000b87 2775      	EOR  R23,R21
000b88 0f55      	LSL  R21
000b89 9567      	ROR  R22
000b8a 9508      	RET
                 
                 __CFD1U:
000b8b 9468      	SET
000b8c c001      	RJMP __CFD1U0
                 __CFD1:
000b8d 94e8      	CLT
                 __CFD1U0:
000b8e 935f      	PUSH R21
000b8f dff2      	RCALL __UNPACK1
000b90 3870      	CPI  R23,0x80
000b91 f018      	BRLO __CFD10
000b92 3f7f      	CPI  R23,0xFF
000b93 f408      	BRCC __CFD10
000b94 c04b      	RJMP __ZERORES
                 __CFD10:
000b95 e156      	LDI  R21,22
000b96 1b57      	SUB  R21,R23
000b97 f4aa      	BRPL __CFD11
000b98 9551      	NEG  R21
000b99 3058      	CPI  R21,8
000b9a f40e      	BRTC __CFD19
000b9b 3059      	CPI  R21,9
                 __CFD19:
000b9c f030      	BRLO __CFD17
000b9d efef      	SER  R30
000b9e efff      	SER  R31
000b9f ef6f      	SER  R22
000ba0 e77f      	LDI  R23,0x7F
000ba1 f977      	BLD  R23,7
000ba2 c01a      	RJMP __CFD15
                 __CFD17:
000ba3 2777      	CLR  R23
000ba4 2355      	TST  R21
000ba5 f0b9      	BREQ __CFD15
                 __CFD18:
000ba6 0fee      	LSL  R30
000ba7 1fff      	ROL  R31
000ba8 1f66      	ROL  R22
000ba9 1f77      	ROL  R23
000baa 955a      	DEC  R21
000bab f7d1      	BRNE __CFD18
000bac c010      	RJMP __CFD15
                 __CFD11:
000bad 2777      	CLR  R23
                 __CFD12:
000bae 3058      	CPI  R21,8
000baf f028      	BRLO __CFD13
000bb0 2fef      	MOV  R30,R31
000bb1 2ff6      	MOV  R31,R22
000bb2 2f67      	MOV  R22,R23
000bb3 5058      	SUBI R21,8
000bb4 cff9      	RJMP __CFD12
                 __CFD13:
000bb5 2355      	TST  R21
000bb6 f031      	BREQ __CFD15
                 __CFD14:
000bb7 9576      	LSR  R23
000bb8 9567      	ROR  R22
000bb9 95f7      	ROR  R31
000bba 95e7      	ROR  R30
000bbb 955a      	DEC  R21
000bbc f7d1      	BRNE __CFD14
                 __CFD15:
000bbd 2000      	TST  R0
000bbe f40a      	BRPL __CFD16
000bbf d080      	RCALL __ANEGD1
                 __CFD16:
000bc0 915f      	POP  R21
000bc1 9508      	RET
                 
                 __CDF1U:
000bc2 9468      	SET
000bc3 c001      	RJMP __CDF1U0
                 __CDF1:
000bc4 94e8      	CLT
                 __CDF1U0:
000bc5 9730      	SBIW R30,0
000bc6 4060      	SBCI R22,0
000bc7 4070      	SBCI R23,0
000bc8 f0b1      	BREQ __CDF10
000bc9 2400      	CLR  R0
000bca f026      	BRTS __CDF11
000bcb 2377      	TST  R23
000bcc f412      	BRPL __CDF11
000bcd 9400      	COM  R0
000bce d071      	RCALL __ANEGD1
                 __CDF11:
000bcf 2e17      	MOV  R1,R23
000bd0 e17e      	LDI  R23,30
000bd1 2011      	TST  R1
                 __CDF12:
000bd2 f032      	BRMI __CDF13
000bd3 957a      	DEC  R23
000bd4 0fee      	LSL  R30
000bd5 1fff      	ROL  R31
000bd6 1f66      	ROL  R22
000bd7 1c11      	ROL  R1
000bd8 cff9      	RJMP __CDF12
                 __CDF13:
000bd9 2fef      	MOV  R30,R31
000bda 2ff6      	MOV  R31,R22
000bdb 2d61      	MOV  R22,R1
000bdc 935f      	PUSH R21
000bdd df8a      	RCALL __REPACK
000bde 915f      	POP  R21
                 __CDF10:
000bdf 9508      	RET
                 
                 __ZERORES:
000be0 27ee      	CLR  R30
000be1 27ff      	CLR  R31
000be2 2766      	CLR  R22
000be3 2777      	CLR  R23
000be4 915f      	POP  R21
000be5 9508      	RET
                 
                 __MINRES:
000be6 efef      	SER  R30
000be7 efff      	SER  R31
000be8 e76f      	LDI  R22,0x7F
000be9 ef7f      	SER  R23
000bea 915f      	POP  R21
000beb 9508      	RET
                 
                 __MAXRES:
000bec efef      	SER  R30
000bed efff      	SER  R31
000bee e76f      	LDI  R22,0x7F
000bef e77f      	LDI  R23,0x7F
000bf0 915f      	POP  R21
000bf1 9508      	RET
                 
                 __MULF12:
000bf2 935f      	PUSH R21
000bf3 df86      	RCALL __UNPACK
000bf4 3870      	CPI  R23,0x80
000bf5 f351      	BREQ __ZERORES
000bf6 3890      	CPI  R25,0x80
000bf7 f341      	BREQ __ZERORES
000bf8 2401      	EOR  R0,R1
000bf9 9408      	SEC
000bfa 1f79      	ADC  R23,R25
000bfb f423      	BRVC __MULF124
000bfc f31c      	BRLT __ZERORES
                 __MULF125:
000bfd 2000      	TST  R0
000bfe f33a      	BRMI __MINRES
000bff cfec      	RJMP __MAXRES
                 __MULF124:
000c00 920f      	PUSH R0
000c01 931f      	PUSH R17
000c02 932f      	PUSH R18
000c03 933f      	PUSH R19
000c04 934f      	PUSH R20
000c05 2711      	CLR  R17
000c06 2722      	CLR  R18
000c07 2799      	CLR  R25
000c08 9f68      	MUL  R22,R24
000c09 01a0      	MOVW R20,R0
000c0a 9f8f      	MUL  R24,R31
000c0b 2d30      	MOV  R19,R0
000c0c 0d41      	ADD  R20,R1
000c0d 1f59      	ADC  R21,R25
000c0e 9f6b      	MUL  R22,R27
000c0f 0d30      	ADD  R19,R0
000c10 1d41      	ADC  R20,R1
000c11 1f59      	ADC  R21,R25
000c12 9f8e      	MUL  R24,R30
000c13 d027      	RCALL __MULF126
000c14 9fbf      	MUL  R27,R31
000c15 d025      	RCALL __MULF126
000c16 9f6a      	MUL  R22,R26
000c17 d023      	RCALL __MULF126
000c18 9fbe      	MUL  R27,R30
000c19 d01d      	RCALL __MULF127
000c1a 9faf      	MUL  R26,R31
000c1b d01b      	RCALL __MULF127
000c1c 9fae      	MUL  R26,R30
000c1d 0d11      	ADD  R17,R1
000c1e 1f29      	ADC  R18,R25
000c1f 1f39      	ADC  R19,R25
000c20 1f49      	ADC  R20,R25
000c21 1f59      	ADC  R21,R25
000c22 2fe3      	MOV  R30,R19
000c23 2ff4      	MOV  R31,R20
000c24 2f65      	MOV  R22,R21
000c25 2f52      	MOV  R21,R18
000c26 914f      	POP  R20
000c27 913f      	POP  R19
000c28 912f      	POP  R18
000c29 911f      	POP  R17
000c2a 900f      	POP  R0
000c2b 2366      	TST  R22
000c2c f02a      	BRMI __MULF122
000c2d 0f55      	LSL  R21
000c2e 1fee      	ROL  R30
000c2f 1fff      	ROL  R31
000c30 1f66      	ROL  R22
000c31 c002      	RJMP __MULF123
                 __MULF122:
000c32 9573      	INC  R23
000c33 f24b      	BRVS __MULF125
                 __MULF123:
000c34 df29      	RCALL __ROUND_REPACK
000c35 915f      	POP  R21
000c36 9508      	RET
                 
                 __MULF127:
000c37 0d10      	ADD  R17,R0
000c38 1d21      	ADC  R18,R1
000c39 1f39      	ADC  R19,R25
000c3a c002      	RJMP __MULF128
                 __MULF126:
000c3b 0d20      	ADD  R18,R0
000c3c 1d31      	ADC  R19,R1
                 __MULF128:
000c3d 1f49      	ADC  R20,R25
000c3e 1f59      	ADC  R21,R25
000c3f 9508      	RET
                 
                 __ANEGD1:
000c40 95f0      	COM  R31
000c41 9560      	COM  R22
000c42 9570      	COM  R23
000c43 95e1      	NEG  R30
000c44 4fff      	SBCI R31,-1
000c45 4f6f      	SBCI R22,-1
000c46 4f7f      	SBCI R23,-1
000c47 9508      	RET
                 
                 __LSLB12:
000c48 23ee      	TST  R30
000c49 2e0e      	MOV  R0,R30
000c4a 2fea      	MOV  R30,R26
000c4b f019      	BREQ __LSLB12R
                 __LSLB12L:
000c4c 0fee      	LSL  R30
000c4d 940a      	DEC  R0
000c4e f7e9      	BRNE __LSLB12L
                 __LSLB12R:
000c4f 9508      	RET
                 
                 __ASRW12:
000c50 23ee      	TST  R30
000c51 2e0e      	MOV  R0,R30
000c52 01fd      	MOVW R30,R26
000c53 f021      	BREQ __ASRW12R
                 __ASRW12L:
000c54 95f5      	ASR  R31
000c55 95e7      	ROR  R30
000c56 940a      	DEC  R0
000c57 f7e1      	BRNE __ASRW12L
                 __ASRW12R:
000c58 9508      	RET
                 
                 __CWD1:
000c59 2f6f      	MOV  R22,R31
000c5a 0f66      	ADD  R22,R22
000c5b 0b66      	SBC  R22,R22
000c5c 2f76      	MOV  R23,R22
000c5d 9508      	RET
                 
                 __LNEGB1:
000c5e 23ee      	TST  R30
000c5f e0e1      	LDI  R30,1
000c60 f009      	BREQ __LNEGB1F
000c61 27ee      	CLR  R30
                 __LNEGB1F:
000c62 9508      	RET
                 
                 __MULW12U:
000c63 9ffa      	MUL  R31,R26
000c64 2df0      	MOV  R31,R0
000c65 9feb      	MUL  R30,R27
000c66 0df0      	ADD  R31,R0
000c67 9fea      	MUL  R30,R26
000c68 2de0      	MOV  R30,R0
000c69 0df1      	ADD  R31,R1
000c6a 9508      	RET
                 
                 __DIVD21U:
000c6b 933f      	PUSH R19
000c6c 934f      	PUSH R20
000c6d 935f      	PUSH R21
000c6e 2400      	CLR  R0
000c6f 2411      	CLR  R1
000c70 2744      	CLR  R20
000c71 2755      	CLR  R21
000c72 e230      	LDI  R19,32
                 __DIVD21U1:
000c73 0faa      	LSL  R26
000c74 1fbb      	ROL  R27
000c75 1f88      	ROL  R24
000c76 1f99      	ROL  R25
000c77 1c00      	ROL  R0
000c78 1c11      	ROL  R1
000c79 1f44      	ROL  R20
000c7a 1f55      	ROL  R21
000c7b 1a0e      	SUB  R0,R30
000c7c 0a1f      	SBC  R1,R31
000c7d 0b46      	SBC  R20,R22
000c7e 0b57      	SBC  R21,R23
000c7f f428      	BRCC __DIVD21U2
000c80 0e0e      	ADD  R0,R30
000c81 1e1f      	ADC  R1,R31
000c82 1f46      	ADC  R20,R22
000c83 1f57      	ADC  R21,R23
000c84 c001      	RJMP __DIVD21U3
                 __DIVD21U2:
000c85 60a1      	SBR  R26,1
                 __DIVD21U3:
000c86 953a      	DEC  R19
000c87 f759      	BRNE __DIVD21U1
000c88 01fd      	MOVW R30,R26
000c89 01bc      	MOVW R22,R24
000c8a 01d0      	MOVW R26,R0
000c8b 01ca      	MOVW R24,R20
000c8c 915f      	POP  R21
000c8d 914f      	POP  R20
000c8e 913f      	POP  R19
000c8f 9508      	RET
                 
                 __MODD21U:
000c90 dfda      	RCALL __DIVD21U
000c91 01fd      	MOVW R30,R26
000c92 01bc      	MOVW R22,R24
000c93 9508      	RET
                 
                 __GETW1P:
000c94 91ed      	LD   R30,X+
000c95 91fc      	LD   R31,X
000c96 9711      	SBIW R26,1
000c97 9508      	RET
                 
                 __GETW1PF:
000c98 9005      	LPM  R0,Z+
000c99 91f4      	LPM  R31,Z
000c9a 2de0      	MOV  R30,R0
000c9b 9508      	RET
                 
                 __PUTPARD1:
000c9c 937a      	ST   -Y,R23
000c9d 936a      	ST   -Y,R22
000c9e 93fa      	ST   -Y,R31
000c9f 93ea      	ST   -Y,R30
000ca0 9508      	RET
                 
                 __EEPROMRDW:
000ca1 9611      	ADIW R26,1
000ca2 d002      	RCALL __EEPROMRDB
000ca3 2ffe      	MOV  R31,R30
000ca4 9711      	SBIW R26,1
                 
                 __EEPROMRDB:
000ca5 99e1      	SBIC EECR,EEWE
000ca6 cffe      	RJMP __EEPROMRDB
000ca7 93ff      	PUSH R31
000ca8 b7ff      	IN   R31,SREG
000ca9 94f8      	CLI
000caa bbae      	OUT  EEARL,R26
000cab bbbf      	OUT  EEARH,R27
000cac 9ae0      	SBI  EECR,EERE
000cad b3ed      	IN   R30,EEDR
000cae bfff      	OUT  SREG,R31
000caf 91ff      	POP  R31
000cb0 9508      	RET
                 
                 __EEPROMWRW:
000cb1 d007      	RCALL __EEPROMWRB
000cb2 9611      	ADIW R26,1
000cb3 93ef      	PUSH R30
000cb4 2fef      	MOV  R30,R31
000cb5 d003      	RCALL __EEPROMWRB
000cb6 91ef      	POP  R30
000cb7 9711      	SBIW R26,1
000cb8 9508      	RET
                 
                 __EEPROMWRB:
000cb9 9be1      	SBIS EECR,EEWE
000cba c002      	RJMP __EEPROMWRB1
000cbb 95a8      	WDR
000cbc cffc      	RJMP __EEPROMWRB
                 __EEPROMWRB1:
000cbd b79f      	IN   R25,SREG
000cbe 94f8      	CLI
000cbf bbae      	OUT  EEARL,R26
000cc0 bbbf      	OUT  EEARH,R27
000cc1 9ae0      	SBI  EECR,EERE
000cc2 b38d      	IN   R24,EEDR
000cc3 17e8      	CP   R30,R24
000cc4 f019      	BREQ __EEPROMWRB0
000cc5 bbed      	OUT  EEDR,R30
000cc6 9ae2      	SBI  EECR,EEMWE
000cc7 9ae1      	SBI  EECR,EEWE
                 __EEPROMWRB0:
000cc8 bf9f      	OUT  SREG,R25
000cc9 9508      	RET
                 
                 __CPD10:
000cca 9730      	SBIW R30,0
000ccb 4060      	SBCI R22,0
000ccc 4070      	SBCI R23,0
000ccd 9508      	RET
                 
                 __BSTB1:
000cce 94e8      	CLT
000ccf 23ee      	TST  R30
000cd0 f009      	BREQ PC+2
000cd1 9468      	SET
000cd2 9508      	RET
                 
                 __SAVELOCR4:
000cd3 933a      	ST   -Y,R19
                 __SAVELOCR3:
000cd4 932a      	ST   -Y,R18
                 __SAVELOCR2:
000cd5 931a      	ST   -Y,R17
000cd6 930a      	ST   -Y,R16
000cd7 9508      	RET
                 
                 __LOADLOCR4:
000cd8 813b      	LDD  R19,Y+3
                 __LOADLOCR3:
000cd9 812a      	LDD  R18,Y+2
                 __LOADLOCR2:
000cda 8119      	LDD  R17,Y+1
000cdb 8108      	LD   R16,Y
000cdc 9508      	RET
                 
                 __LOADLOCR2P:
000cdd 9109      	LD   R16,Y+
000cde 9119      	LD   R17,Y+
000cdf 9508      	RET
                 
                 ;END OF CODE MARKER
                 __END_OF_CODE:


RESOURCE USE INFORMATION
------------------------

Notice:
The register and instruction counts are symbol table hit counts,
and hence implicitly used resources are not counted, eg, the
'lpm' instruction without operands implicitly uses r0 and z,
none of which are counted.

x,y,z are separate entities in the symbol table and are
counted separately from r26..r31 here.

.dseg memory usage only counts static data declared with .byte

ATmega8 register use summary:
r0 :  56 r1 :  26 r2 :   5 r3 :   0 r4 :   4 r5 :   2 r6 :   0 r7 :   0 
r8 :   0 r9 :   0 r10:   0 r11:   0 r12:   0 r13:   0 r14:   0 r15:   4 
r16:  18 r17:  72 r18:  12 r19:  17 r20:  15 r21:  50 r22:  82 r23:  66 
r24:  73 r25:  37 r26: 200 r27:  76 r28:  11 r29:   1 r30: 793 r31: 351 
x  :  36 y  : 515 z  :  18 
Registers used: 25 out of 35 (71.4%)

ATmega8 instruction use summary:
.lds  :   0 .lds.l:   0 .sts  :   0 .sts.l:   0 adc   :  27 add   :  20 
adiw  :  20 and   :   4 andi  :   7 asr   :   1 bclr  :   0 bld   :   3 
brbc  :   0 brbs  :   0 brcc  :   4 brcs  :   0 break :   0 breq  :  30 
brge  :   1 brhc  :   0 brhs  :   0 brid  :   0 brie  :   0 brlo  :  19 
brlt  :   2 brmi  :   4 brne  :  75 brpl  :   5 brsh  :  10 brtc  :   2 
brts  :   1 brvc  :   1 brvs  :   2 bset  :   0 bst   :   0 cbi   :  35 
cbr   :   0 clc   :   2 clh   :   0 cli   :   3 cln   :   0 clr   :  29 
cls   :   0 clt   :   4 clv   :   0 clz   :   0 com   :   4 cp    :  10 
cpc   :  29 cpi   :  63 cpse  :   0 dec   :  28 des   :   0 eor   :  10 
fmul  :   0 fmuls :   0 fmulsu:   0 icall :   0 ijmp  :   0 in    :  30 
inc   :   2 ld    :  97 ldd   : 110 ldi   : 473 lds   :  29 lpm   :  16 
lsl   :  21 lsr   :   2 mov   :  42 movw  :  32 mul   :  14 muls  :   0 
mulsu :   0 neg   :   2 nop   :   1 or    :   2 ori   :   6 out   :  77 
pop   :  18 push  :  17 rcall : 226 ret   :  58 reti  :   5 rjmp  : 126 
rol   :  24 ror   :  12 sbc   :   4 sbci  :  19 sbi   :  28 sbic  :  14 
sbis  :  12 sbiw  :  33 sbr   :   1 sbrc  :   3 sbrs  :   4 sec   :   3 
seh   :   0 sei   :   1 sen   :   0 ser   :   8 ses   :   0 set   :   5 
sev   :   0 sez   :   0 sleep :   0 spm   :   0 st    : 321 std   :  28 
sts   :  12 sub   :   2 subi  :  38 swap  :   2 tst   :  22 wdr   :   2 

Instructions used: 77 out of 114 (67.5%)

ATmega8 memory use summary [bytes]:
Segment   Begin    End      Code   Data   Used    Size   Use%
---------------------------------------------------------------
[.cseg] 0x000000 0x0019c0   4994   1598   6592    8192  80.5%
[.dseg] 0x000060 0x00041b      0    443    443    1119  39.6%
[.eseg] 0x000000 0x000004      0      4      4     512   0.8%

Assembly complete, 0 errors, 5 warnings
